LX51 LINKER/LOCATER V4.66.97.0                                                          04/10/2021  13:15:07  PAGE 1


LX51 LINKER/LOCATER V4.66.97.0, INVOKED BY:
C:\KEIL_V5\C51\BIN\LX51.EXE .\output\STARTUP.obj, .\output\app.obj, .\output\key_app.obj, .\output\delay.obj, .\output\s
>> ystem_clock.obj, .\output\uart.obj, .\output\adc.obj, .\output\main.obj, .\output\bsp.obj, .\output\ring.obj, .\outpu
>> t\timer.obj, .\output\interrupt.obj, .\output\rtc.obj, .\output\bat.obj, .\output\lcd.obj, .\output\key.obj, .\output
>> \bl.obj, .\output\motor.obj, .\output\switch.obj TO .\output\F0790 PRINT (.\lst\F0790.map) REMOVEUNUSED CLASSES (XDAT
>> A (X:0X0-X:0X7FF), HDATA (X:0X0-X:0X7FF), CODE (C:0X0-C:0X7FFF), CONST (C:0X0-C:0X7FFF), ECODE (C:0X0-C:0X7FFF), HCON
>> ST (C:0X0-C:0X7FFF))


CPU MODE:     8051 MODE
MEMORY MODEL: LARGE WITH FLOATING POINT ARITHMETIC


INPUT MODULES INCLUDED:
  .\output\STARTUP.obj (?C_STARTUP)
         COMMENT TYPE 1: A51 / ASM51 Assembler
  .\output\app.obj (APP)
         COMMENT TYPE 0: C51 V9.60.0.0
  .\output\key_app.obj (KEY_APP)
         COMMENT TYPE 0: C51 V9.60.0.0
  .\output\delay.obj (DELAY)
         COMMENT TYPE 0: C51 V9.60.0.0
  .\output\system_clock.obj (SYSTEM_CLOCK)
         COMMENT TYPE 0: C51 V9.60.0.0
  .\output\uart.obj (UART)
         COMMENT TYPE 0: C51 V9.60.0.0
  .\output\adc.obj (ADC)
         COMMENT TYPE 0: C51 V9.60.0.0
  .\output\main.obj (MAIN)
         COMMENT TYPE 0: C51 V9.60.0.0
  .\output\bsp.obj (BSP)
         COMMENT TYPE 0: C51 V9.60.0.0
  .\output\ring.obj (RING)
         COMMENT TYPE 0: C51 V9.60.0.0
  .\output\timer.obj (TIMER)
         COMMENT TYPE 0: C51 V9.60.0.0
  .\output\interrupt.obj (INTERRUPT)
         COMMENT TYPE 0: C51 V9.60.0.0
  .\output\rtc.obj (RTC)
         COMMENT TYPE 0: C51 V9.60.0.0
  .\output\bat.obj (BAT)
         COMMENT TYPE 0: C51 V9.60.0.0
  .\output\lcd.obj (LCD)
         COMMENT TYPE 0: C51 V9.60.0.0
  .\output\key.obj (KEY)
         COMMENT TYPE 0: C51 V9.60.0.0
  .\output\bl.obj (BL)
         COMMENT TYPE 0: C51 V9.60.0.0
  .\output\motor.obj (MOTOR)
         COMMENT TYPE 0: C51 V9.60.0.0
  .\output\switch.obj (SWITCH)
         COMMENT TYPE 0: C51 V9.60.0.0
  C:\KEIL_V5\C51\LIB\C51FPL.LIB (?C?FPADD)
         COMMENT TYPE 1: A51 / ASM51 Assembler
  C:\KEIL_V5\C51\LIB\C51FPL.LIB (?C?FPMUL)
         COMMENT TYPE 1: A51 / ASM51 Assembler
  C:\KEIL_V5\C51\LIB\C51FPL.LIB (?C?FPDIV)
         COMMENT TYPE 1: A51 / ASM51 Assembler
  C:\KEIL_V5\C51\LIB\C51FPL.LIB (?C?FCAST)
         COMMENT TYPE 1: A51 / ASM51 Assembler
  C:\KEIL_V5\C51\LIB\C51FPL.LIB (?C?CASTF)
         COMMENT TYPE 1: A51 / ASM51 Assembler
  C:\KEIL_V5\C51\LIB\C51FPL.LIB (VSPRINTF)
         COMMENT TYPE 1: A51 / ASM51 Assembler
  C:\KEIL_V5\C51\LIB\C51FPL.LIB (?C?FPGETOPN)
         COMMENT TYPE 1: A51 / ASM51 Assembler
LX51 LINKER/LOCATER V4.66.97.0                                                        04/10/2021  13:15:07  PAGE 2


  C:\KEIL_V5\C51\LIB\C51FPL.LIB (PRINTF)
         COMMENT TYPE 1: A51 / ASM51 Assembler
  C:\KEIL_V5\C51\LIB\C51FPL.LIB (?C?FPROUND)
         COMMENT TYPE 1: A51 / ASM51 Assembler
  C:\KEIL_V5\C51\LIB\C51FPL.LIB (?C?FPCONVERT)
         COMMENT TYPE 1: A51 / ASM51 Assembler
  C:\KEIL_V5\C51\LIB\C51FPL.LIB (?C?FTNPWR)
         COMMENT TYPE 1: A51 / ASM51 Assembler
  C:\KEIL_V5\C51\LIB\C51L.LIB (?C_INIT)
         COMMENT TYPE 1: A51 / ASM51 Assembler
  C:\KEIL_V5\C51\LIB\C51L.LIB (?C?CLDPTR)
         COMMENT TYPE 1: A51 / ASM51 Assembler
  C:\KEIL_V5\C51\LIB\C51L.LIB (?C?CLDOPTR)
         COMMENT TYPE 1: A51 / ASM51 Assembler
  C:\KEIL_V5\C51\LIB\C51L.LIB (?C?CILDPTR)
         COMMENT TYPE 1: A51 / ASM51 Assembler
  C:\KEIL_V5\C51\LIB\C51L.LIB (?C?CILDOPTR)
         COMMENT TYPE 1: A51 / ASM51 Assembler
  C:\KEIL_V5\C51\LIB\C51L.LIB (?C?CSTPTR)
         COMMENT TYPE 1: A51 / ASM51 Assembler
  C:\KEIL_V5\C51\LIB\C51L.LIB (?C?CSTOPTR)
         COMMENT TYPE 1: A51 / ASM51 Assembler
  C:\KEIL_V5\C51\LIB\C51L.LIB (?C?IMUL)
         COMMENT TYPE 1: A51 / ASM51 Assembler
  C:\KEIL_V5\C51\LIB\C51L.LIB (?C?UIDIV)
         COMMENT TYPE 1: A51 / ASM51 Assembler
  C:\KEIL_V5\C51\LIB\C51L.LIB (?C?IILDX)
         COMMENT TYPE 1: A51 / ASM51 Assembler
  C:\KEIL_V5\C51\LIB\C51L.LIB (?C?ILDIX)
         COMMENT TYPE 1: A51 / ASM51 Assembler
  C:\KEIL_V5\C51\LIB\C51L.LIB (?C?ILDPTR)
         COMMENT TYPE 1: A51 / ASM51 Assembler
  C:\KEIL_V5\C51\LIB\C51L.LIB (?C?ILDOPTR)
         COMMENT TYPE 1: A51 / ASM51 Assembler
  C:\KEIL_V5\C51\LIB\C51L.LIB (?C?IILDOPTR)
         COMMENT TYPE 1: A51 / ASM51 Assembler
  C:\KEIL_V5\C51\LIB\C51L.LIB (?C?ISTPTR)
         COMMENT TYPE 1: A51 / ASM51 Assembler
  C:\KEIL_V5\C51\LIB\C51L.LIB (?C?ISTOPTR)
         COMMENT TYPE 1: A51 / ASM51 Assembler
  C:\KEIL_V5\C51\LIB\C51L.LIB (?C?LMUL)
         COMMENT TYPE 1: A51 / ASM51 Assembler
  C:\KEIL_V5\C51\LIB\C51L.LIB (?C?ULDIV)
         COMMENT TYPE 1: A51 / ASM51 Assembler
  C:\KEIL_V5\C51\LIB\C51L.LIB (?C?LNEG)
         COMMENT TYPE 1: A51 / ASM51 Assembler
  C:\KEIL_V5\C51\LIB\C51L.LIB (?C?LSTPTR)
         COMMENT TYPE 1: A51 / ASM51 Assembler
  C:\KEIL_V5\C51\LIB\C51L.LIB (?C?LSTXDATA)
         COMMENT TYPE 1: A51 / ASM51 Assembler
  C:\KEIL_V5\C51\LIB\C51L.LIB (?C?LSTKXDATA)
         COMMENT TYPE 1: A51 / ASM51 Assembler
  C:\KEIL_V5\C51\LIB\C51L.LIB (?C?OFFXADD)
         COMMENT TYPE 1: A51 / ASM51 Assembler
  C:\KEIL_V5\C51\LIB\C51L.LIB (?C?PLDIXDATA)
         COMMENT TYPE 1: A51 / ASM51 Assembler
  C:\KEIL_V5\C51\LIB\C51L.LIB (?C?PSTXDATA)
         COMMENT TYPE 1: A51 / ASM51 Assembler
  C:\KEIL_V5\C51\LIB\C51L.LIB (?C?CCASE)
         COMMENT TYPE 1: A51 / ASM51 Assembler
  C:\KEIL_V5\C51\LIB\C51L.LIB (PUTCHAR)
         COMMENT TYPE 1: A51 / ASM51 Assembler
  C:\KEIL_V5\C51\LIB\C51L.LIB (?C?LSTIDATA)
         COMMENT TYPE 1: A51 / ASM51 Assembler
  C:\KEIL_V5\C51\LIB\C51L.LIB (?C?LSTPDATA)
LX51 LINKER/LOCATER V4.66.97.0                                                        04/10/2021  13:15:07  PAGE 3


         COMMENT TYPE 1: A51 / ASM51 Assembler


ACTIVE MEMORY CLASSES OF MODULE:  .\output\F0790 (?C_STARTUP)

BASE        START       END         USED      MEMORY CLASS
==========================================================
X:000000H   X:000000H   X:0007FFH   0003F4H   XDATA
X:000000H   X:000000H   X:0007FFH             HDATA
C:000000H   C:000000H   C:007FFFH   003C63H   CODE
C:000000H   C:000000H   C:007FFFH   000040H   CONST
C:000000H   C:000000H   C:007FFFH             ECODE
C:000000H   C:000000H   C:007FFFH             HCONST
I:000000H   I:000000H   I:0000FFH   000001H   IDATA
I:000020H.0 I:000020H.0 I:00002FH.7 000001H.5 BIT
I:000000H   I:000000H   I:00007FH   00000DH   DATA


MEMORY MAP OF MODULE:  .\output\F0790 (?C_STARTUP)


START     STOP      LENGTH    ALIGN  RELOC    MEMORY CLASS   SEGMENT NAME
=========================================================================

* * * * * * * * * * *   D A T A   M E M O R Y   * * * * * * * * * * * * *
000000H   000007H   000008H   ---    AT..     DATA           "REG BANK 0"
000008H   00000CH   000005H   BYTE   UNIT     DATA           _DATA_GROUP_
00000DH.0 00001FH.7 000013H.0 ---    ---      **GAP**
000020H.0 000021H.0 000001H.1 BIT    UNIT     BIT            _BIT_GROUP_
000021H.1 000021H.3 000000H.3 BIT    UNIT     BIT            ?BI?MOTOR
000021H.4 000021H.4 000000H.1 BIT    UNIT     BIT            ?BI?UART
000021H.5 000021H   000000H.3 ---    ---      **GAP**
000022H   000022H   000001H   BYTE   UNIT     IDATA          ?STACK

* * * * * * * * * * *   C O D E   M E M O R Y   * * * * * * * * * * * * *
000000H   000002H   000003H   ---    OFFS..   CODE           ?CO??C_STARTUP?0
000003H   00000AH   000008H   BYTE   UNIT     CODE           ?PR?_ADC_CONFIGCHANNEL?ADC
00000BH   00000DH   000003H   BYTE   OFFS..   CODE           ?INTERRUPT?0000B
00000EH   00001AH   00000DH   BYTE   UNIT     CODE           ?PR?RING_VOL_AD_INIT?RING
00001BH   00001DH   000003H   BYTE   OFFS..   CODE           ?INTERRUPT?0001B
00001EH   000022H   000005H   BYTE   UNIT     CODE           ?PR?KEY_AL1_LONG_PRESS_HANDLER?KEY_APP
000023H   000025H   000003H   BYTE   OFFS..   CODE           ?UART?00023
000026H   00006AH   000045H   BYTE   UNIT     CODE           ?PR?LCD_SET_SNOOZE_TIME?LCD
00006BH   00006DH   000003H   BYTE   OFFS..   CODE           ?INTERRUPT?0006B
00006EH   0009C6H   000959H   BYTE   UNIT     CODE           ?C?LIB_CODE
0009C7H   000E49H   000483H   BYTE   UNIT     CODE           ?PR?PRINTF?PRINTF
000E4AH   00109BH   000252H   BYTE   UNIT     CODE           ?C_INITSEG
00109CH   00123FH   0001A4H   BYTE   UNIT     CODE           ?PR?_BSP_DETECTKEY?KEY
001240H   001373H   000134H   BYTE   UNIT     CODE           ?PR?SET_CLOCK_ADD?KEY_APP
001374H   0014A3H   000130H   BYTE   UNIT     CODE           ?PR?GET_CURRENT_VOL_LEVEL?RING
0014A4H   0015C3H   000120H   BYTE   UNIT     CODE           ?PR?TIMER0_ISR?INTERRUPT
0015C4H   0016D9H   000116H   BYTE   UNIT     CODE           ?PR?GET_CALENDAR?RTC
0016DAH   0017E8H   00010FH   BYTE   UNIT     CODE           ?PR?SET_CLOCK_SUB?KEY_APP
0017E9H   0018ECH   000104H   BYTE   UNIT     CODE           ?PR?_SET_RTC?RTC
0018EDH   0019C8H   0000DCH   BYTE   UNIT     CODE           ?PR?ALARM_TEST?RTC
0019C9H   001A9EH   0000D6H   BYTE   UNIT     CODE           ?PR?_SHOW_HOUR_MINUTE?LCD
001A9FH   001B72H   0000D4H   BYTE   UNIT     CODE           ?PR?MAIN?MAIN
001B73H   001C36H   0000C4H   BYTE   UNIT     CODE           ?PR?BL_HANDLER?BL
001C37H   001CF4H   0000BEH   BYTE   UNIT     CODE           ?PR?RING_CMD_ISR_HANDLER?RING
001CF5H   001DAAH   0000B6H   BYTE   UNIT     CODE           ?PR?_GET_BL_PWM_DUTY_VALUE?BL
001DABH   001E5FH   0000B5H   BYTE   UNIT     CODE           ?PR?_SET_BL_PARAM?BL
001E60H   001F09H   0000AAH   BYTE   UNIT     CODE           ?PR?GET_VOLUME_AND_MODE?SWITCH
001F0AH   001FAFH   0000A6H   BYTE   UNIT     CODE           ?PR?KEY_NO_ACTION_TEST?KEY_APP
001FB0H   002052H   0000A3H   BYTE   UNIT     CODE           ?PR?_GET_ADJUST_AD_VALUE?BL
002053H   0020ECH   00009AH   BYTE   UNIT     CODE           ?PR?KEY_UP_HANDLER?KEY_APP
LX51 LINKER/LOCATER V4.66.97.0                                                        04/10/2021  13:15:07  PAGE 4


0020EDH   002185H   000099H   BYTE   UNIT     CODE           ?PR?LCD_INIT?LCD
002186H   00221DH   000098H   BYTE   UNIT     CODE           ?PR?_GET_WEEK?RTC
00221EH   0022B4H   000097H   BYTE   UNIT     CODE           ?PR?SET_ALARM_SUB?KEY_APP
0022B5H   00234AH   000096H   BYTE   UNIT     CODE           ?PR?_LCD_SYMBOL_DEAL?LCD
00234BH   0023DBH   000091H   BYTE   UNIT     CODE           ?PR?SET_ALARM_ADD?KEY_APP
0023DCH   00246BH   000090H   BYTE   UNIT     CODE           ?PR?_GET_CURRENT_SWITCH_LEVEL?SWITCH
00246CH   0024FAH   00008FH   BYTE   UNIT     CODE           ?PR?RING_VOL_ADJUST_HANDLER?RING
0024FBH   002587H   00008DH   BYTE   UNIT     CODE           ?PR?KEY_DOWN_HANDLER?KEY_APP
002588H   002613H   00008CH   BYTE   UNIT     CODE           ?C_C51STARTUP
002614H   00269FH   00008CH   BYTE   UNIT     CODE           ?PR?LCD_SET_ALARM?LCD
0026A0H   002725H   000086H   BYTE   UNIT     CODE           ?PR?ALARM_SHAKE?MOTOR
002726H   0027AAH   000085H   BYTE   UNIT     CODE           ?PR?LCD_TEST?LCD
0027ABH   00282DH   000083H   BYTE   UNIT     CODE           ?PR?LCD_SET_CLOCK?LCD
00282EH   0028ABH   00007EH   BYTE   UNIT     CODE           ?PR?BSP_INITKEYVAR?KEY
0028ACH   002926H   00007BH   BYTE   UNIT     CODE           ?PR?KEY_PROCESS?KEY_APP
002927H   0029A1H   00007BH   BYTE   UNIT     CODE           ?PR?_ENTER_ALARM_SETING?KEY_APP
0029A2H   002A17H   000076H   BYTE   UNIT     CODE           ?PR?SHOW_YEAR?LCD
002A18H   002A88H   000071H   BYTE   UNIT     CODE           ?PR?BL_INIT?BL
002A89H   002AF5H   00006DH   BYTE   UNIT     CODE           ?PR?_UART0_PUTCHAR?UART
002AF6H   002B60H   00006BH   BYTE   UNIT     CODE           ?PR?_SMG1_DEAL?LCD
002B61H   002BCBH   00006BH   BYTE   UNIT     CODE           ?PR?_SMG2_DEAL?LCD
002BCCH   002C36H   00006BH   BYTE   UNIT     CODE           ?PR?_SMG3_DEAL?LCD
002C37H   002CA1H   00006BH   BYTE   UNIT     CODE           ?PR?_SMG4_DEAL?LCD
002CA2H   002D0BH   00006AH   BYTE   UNIT     CODE           ?PR?UART0_ISR?UART
002D0CH   002D72H   000067H   BYTE   UNIT     CODE           ?PR?RING_INIT?RING
002D73H   002DD7H   000065H   BYTE   UNIT     CODE           ?PR?_UART0_INITIAL?UART
002DD8H   002E39H   000062H   BYTE   UNIT     CODE           ?PR?LCD_CLOCK?LCD
002E3AH   002E99H   000060H   BYTE   UNIT     CODE           ?PR?QUIT_LOW_SPEED_MODE?BAT
002E9AH   002EF8H   00005FH   BYTE   UNIT     CODE           ?PR?_UART_PRINTF?UART
002EF9H   002F56H   00005EH   BYTE   UNIT     CODE           ?PR?_IS_OVER_MAX_DAYS?RTC
002F57H   002FB3H   00005DH   BYTE   UNIT     CODE           ?PR?TEST_5V_IN?BAT
002FB4H   00300EH   00005BH   BYTE   UNIT     CODE           ?PR?RTC_ISR?INTERRUPT
00300FH   003069H   00005BH   BYTE   UNIT     CODE           ?PR?ENTER_LOW_SPEED_MODE?BAT
00306AH   0030C2H   000059H   BYTE   UNIT     CODE           ?PR?_ALARM_STOP_KEY_FUNCTION?KEY_APP
0030C3H   00311BH   000059H   BYTE   UNIT     CODE           ?PR?_LCD_NUM_DEAL?LCD
00311CH   003172H   000057H   BYTE   UNIT     CODE           ?PR?KEY_SNOOZE_SHORT_UP_HANDLER?KEY_APP
003173H   0031C9H   000057H   BYTE   UNIT     CODE           ?PR?MOTOR_PRO?MOTOR
0031CAH   00321CH   000053H   BYTE   UNIT     CODE           ?PR?SHOW_MONTH_DAY?LCD
00321DH   003268H   00004CH   BYTE   UNIT     CODE           ?PR?SHOW_ALARM_DAY_STYLE?LCD
003269H   0032B2H   00004AH   BYTE   UNIT     CODE           ?PR?_VSPRINTF?VSPRINTF
0032B3H   0032FAH   000048H   BYTE   UNIT     CODE           ?PR?LCD_CLEAR?LCD
0032FBH   003342H   000048H   BYTE   UNIT     CODE           ?PR?LCD_SHOW_ALL?LCD
003343H   003389H   000047H   BYTE   UNIT     CODE           ?PR?ENTER_SNOOZE?RTC
00338AH   0033CDH   000044H   BYTE   UNIT     CODE           ?PR?KEY_12_24H_SHORT_UP_HANDLER?KEY_APP
0033CEH   003411H   000044H   BYTE   UNIT     CODE           ?PR?RTC_ALARM_OPERA?RTC
003412H   003455H   000044H   BYTE   UNIT     CODE           ?PR?LCD_DISPLAY?LCD
003456H   003498H   000043H   BYTE   UNIT     CODE           ?PR?_SEND_RING_CMD?RING
003499H   0034DAH   000042H   BYTE   UNIT     CODE           ?PR?_TEST_ALARM_SET_STEP?KEY_APP
0034DBH   00351CH   000042H   BYTE   UNIT     CODE           ?PR?KEY_UP_DOWN_DOUBLE_HANDLER?KEY_APP
00351DH   00355CH   000040H   BYTE   UNIT     CODE           ?PR?ALARM_TONE?RING
00355DH   003599H   00003DH   BYTE   UNIT     CODE           ?PR?_DELAY_50US?DELAY
00359AH   0035D6H   00003DH   BYTE   UNIT     CODE           ?PR?BSP_KEYSCAN10MS?KEY
0035D7H   003612H   00003CH   BYTE   UNIT     CODE           ?PR?ALARMED_TIME_TEST?RTC
003613H   00364EH   00003CH   BYTE   UNIT     CODE           ?PR?_ISKEYDOWNFUNC?KEY
00364FH   003689H   00003BH   BYTE   UNIT     CODE           ?PR?TIMER1_ISR?INTERRUPT
00368AH   0036C1H   000038H   BYTE   UNIT     CODE           ?PR?KEY_AL2_SHORT_UP_HANDLER?KEY_APP
0036C2H   0036F8H   000037H   BYTE   UNIT     CODE           ?PR?KEY_AL1_SHORT_UP_HANDLER?KEY_APP
0036F9H   00372DH   000035H   BYTE   UNIT     CODE           ?PR?_SET_MAX_DAYS_OF_MONTH?RTC
00372EH   003761H   000034H   BYTE   UNIT     CODE           ?PR?KEY_ALARM_SET_SHORT_UP_HANDLER?KEY_APP
003762H   003794H   000033H   BYTE   UNIT     CODE           ?PR?_UARTPUTSTR?UART
003795H   0037C6H   000032H   BYTE   UNIT     CODE           ?PR?_IS_LEAP_YEAR?RTC
0037C7H   0037F7H   000031H   BYTE   UNIT     CODE           ?PR?BAT_VOL_TEST?BAT
0037F8H   003827H   000030H   BYTE   UNIT     CODE           ?PR?_SYS_CLK_SET_PLL?SYSTEM_CLOCK
003828H   003855H   00002EH   BYTE   UNIT     CODE           ?PR?BSP_GETKEY?KEY
003856H   003882H   00002DH   BYTE   UNIT     CODE           ?PR?SHOW_12_24HOURS?LCD
LX51 LINKER/LOCATER V4.66.97.0                                                        04/10/2021  13:15:07  PAGE 5


003883H   0038ADH   00002BH   BYTE   UNIT     CODE           ?PR?_BL_BRIGHTNESS_SET?BL
0038AEH   0038D7H   00002AH   BYTE   UNIT     CODE           ?PR?UPDATA_CALENDAR?RTC
0038D8H   003900H   000029H   BYTE   UNIT     CODE           ?PR?_GETCHANNELADCVALUE?ADC
003901H   003929H   000029H   BYTE   UNIT     CODE           ?PR?SNOOZE_ALARM_TEST?RTC
00392AH   003951H   000028H   BYTE   UNIT     CODE           ?PR?TEST_TIME_SET_STEP?KEY_APP
003952H   003979H   000028H   BYTE   UNIT     CODE           ?PR?_ALARM_TIMEOUT_OPERA?RTC
00397AH   0039A0H   000027H   BYTE   UNIT     CODE           ?PR?PUTCHAR?PUTCHAR
0039A1H   0039C6H   000026H   BYTE   UNIT     CODE           ?PR?KEY_SNOOZE_LONG_HANDLER?KEY_APP
0039C7H   0039ECH   000026H   BYTE   UNIT     CODE           ?PR?_MOTOR_ENABLE?MOTOR
0039EDH   003A11H   000025H   BYTE   UNIT     CODE           ?PR?KEY_12_24H_LONG_PRESS_HANDLER?KEY_APP
003A12H   003A34H   000023H   BYTE   UNIT     CODE           ?PR?_KEYPINACTIVE?KEY
003A35H   003A55H   000021H   BYTE   UNIT     CODE           ?PR?LCD_CLOCK_9V_POWER_ON_WAIT?LCD
003A56H   003A76H   000021H   BYTE   UNIT     CODE           ?PR?_BSP_PUTKEY?KEY
003A77H   003A96H   000020H   BYTE   UNIT     CODE           ?PR?_DELAY_MS?DELAY
003A97H   003AB3H   00001DH   BYTE   UNIT     CODE           ?PR?MOTOR_DISABLE?MOTOR
003AB4H   003AD0H   00001DH   BYTE   UNIT     CODE           ?PR?_MOTOR_START?MOTOR
003AD1H   003AEAH   00001AH   BYTE   UNIT     CODE           ?PR?RING_CLOSE?RING
003AEBH   003B04H   00001AH   BYTE   UNIT     CODE           ?PR?RING_STOP?RING
003B05H   003B1CH   000018H   BYTE   UNIT     CODE           ?PR?TEST_5V_IN_LOWSPEED?BAT
003B1DH   003B32H   000016H   BYTE   UNIT     CODE           ?PR?_GET_DVALUE_U16?BL
003B33H   003B47H   000015H   BYTE   UNIT     CODE           ?PR?KEY_ALARM_SET_LONG_PRESS_HANDLER?KEY_APP
003B48H   003B5CH   000015H   BYTE   UNIT     CODE           ?PR?TIMER_INIT?TIMER
003B5DH   003B70H   000014H   BYTE   UNIT     CODE           ?PR?LOW_VOL_OPERA?BAT
003B71H   003B82H   000012H   BYTE   UNIT     CODE           ?PR?NO_USE_IO_INIT?BSP
003B83H   003B93H   000011H   BYTE   UNIT     CODE           ?PR?BL_PARAM_INIT?BL
003B94H   003BA4H   000011H   BYTE   UNIT     CODE           ?PR?SWITCH_ADC_INIT?SWITCH
003BA5H   003BB4H   000010H   BYTE   UNIT     CODE           ?PR?RTC_INIT?RTC
003BB5H   003BC4H   000010H   BYTE   UNIT     CODE           ?PR?NOTHING_ACTION_TEST?BAT
003BC5H   003BD4H   000010H   BYTE   UNIT     CODE           ?PR?LED_MOD_DETECT?SWITCH
003BD5H   003BE3H   00000FH   BYTE   UNIT     CODE           ?PR?KEY_AD_INIT?KEY
003BE4H   003BF2H   00000FH   BYTE   UNIT     CODE           ?PR?MOTOR_INIT?MOTOR
003BF3H   003C01H   00000FH   BYTE   UNIT     CODE           ?PR?CLOSE_SWITCH_ADC_PIN?SWITCH
003C02H   003C0FH   00000EH   BYTE   UNIT     CODE           ?PR?BL_CLOSE?BL
003C10H   003C1CH   00000DH   BYTE   UNIT     CODE           ?PR?BAT_ADC_INIT?BAT
003C1DH   003C29H   00000DH   BYTE   UNIT     CODE           ?PR?BL_ADJUST_AD_INIT?BL
003C2AH   003C35H   00000CH   BYTE   UNIT     CODE           ?PR?LCD_VOLUME_ADJUST?LCD
003C36H   003C3CH   000007H   BYTE   UNIT     CODE           ?PR?TEST_5V_INIT?BAT
003C3DH   003C43H   000007H   BYTE   UNIT     CODE           ?PR?SWITCH_LED_MOD_INIT?SWITCH
003C44H   003C49H   000006H   BYTE   UNIT     CODE           ?PR?CLOSE_BAT_ADC?BAT
003C4AH   003C4FH   000006H   BYTE   UNIT     CODE           ?PR?CLOSE_KEY_AD?KEY
003C50H   003C54H   000005H   BYTE   UNIT     CODE           ?PR?KEY_AL2_LONG_PRESS_HANDLER?KEY_APP
003C55H   003C59H   000005H   BYTE   UNIT     CODE           ?PR?KEY_ALARM_SET_SHORT_PRESS_HANDLER?KEY_APP
003C5AH   003C5EH   000005H   BYTE   UNIT     CODE           ?PR?MOTOR_STOP?MOTOR
003C5FH   003C62H   000004H   BYTE   UNIT     CODE           ?PR?ADC_STARTCONVERSION?ADC
003C63H   003C7DH   00001BH   BYTE   UNIT     CONST          ?CO?KEY
003C7EH   003C95H   000018H   BYTE   UNIT     CONST          ?CO?RTC
003C96H   003CA2H   00000DH   BYTE   UNIT     CONST          ?CO?LCD

* * * * * * * * * * *  X D A T A   M E M O R Y  * * * * * * * * * * * * *
000000H   000164H   000165H   BYTE   UNIT     XDATA          _XDATA_GROUP_
000165H   0001E0H   00007CH   BYTE   UNIT     XDATA          ?XD?UART
0001E1H   000244H   000064H   BYTE   UNIT     XDATA          ?XD?KEY
000245H   000277H   000033H   BYTE   UNIT     XDATA          ?XD?RING
000278H   0002A2H   00002BH   BYTE   UNIT     XDATA          ?XD?RTC
0002A3H   0002C7H   000025H   BYTE   UNIT     XDATA          ?XD?BL
0002C8H   0002DDH   000016H   BYTE   UNIT     XDATA          ?XD?SWITCH
0002DEH   0002EDH   000010H   BYTE   UNIT     XDATA          ?XD?TIMER
0002EEH   0002F9H   00000CH   BYTE   UNIT     XDATA          ?XD?BAT
0002FAH   000304H   00000BH   BYTE   UNIT     XDATA          ?XD?MOTOR
000305H   00030EH   00000AH   BYTE   UNIT     XDATA          ?XD?LCD
00030FH   000314H   000006H   BYTE   UNIT     XDATA          ?XD?INTERRUPT
000315H   000319H   000005H   BYTE   UNIT     XDATA          ?XD?KEY_APP
00031AH   007FFFH   007CE6H   ---    ---      **GAP**
008000H   008000H   000001H   BYTE   OFFS..   XDATA          ?XD?MAIN?132
008001H   008001H   000001H   BYTE   OFFS..   XDATA          ?XD?MAIN?140
LX51 LINKER/LOCATER V4.66.97.0                                                        04/10/2021  13:15:07  PAGE 6


008002H   008002H   000001H   BYTE   OFFS..   XDATA          ?XD?MAIN?149
008003H   008003H   000001H   BYTE   OFFS..   XDATA          ?XD?MAIN?161
008004H   008004H   000001H   BYTE   OFFS..   XDATA          ?XD?MAIN?176
008005H   008005H   000001H   BYTE   OFFS..   XDATA          ?XD?MAIN?190
008006H   008006H   000001H   BYTE   OFFS..   XDATA          ?XD?MAIN?204
008007H   008007H   000001H   BYTE   OFFS..   XDATA          ?XD?MAIN?217
008008H   008008H   000001H   BYTE   OFFS..   XDATA          ?XD?MAIN?139
008009H   008009H   000001H   BYTE   OFFS..   XDATA          ?XD?MAIN?148
00800AH   00800AH   000001H   BYTE   OFFS..   XDATA          ?XD?MAIN?160
00800BH   00800BH   000001H   BYTE   OFFS..   XDATA          ?XD?MAIN?175
00800CH   00800CH   000001H   BYTE   OFFS..   XDATA          ?XD?MAIN?189
00800DH   00800DH   000001H   BYTE   OFFS..   XDATA          ?XD?MAIN?203
00800EH   00800EH   000001H   BYTE   OFFS..   XDATA          ?XD?MAIN?216
00800FH   00800FH   000001H   BYTE   OFFS..   XDATA          ?XD?MAIN?11
008010H   008010H   000001H   BYTE   OFFS..   XDATA          ?XD?MAIN?147
008011H   008011H   000001H   BYTE   OFFS..   XDATA          ?XD?MAIN?159
008012H   008012H   000001H   BYTE   OFFS..   XDATA          ?XD?MAIN?174
008013H   008013H   000001H   BYTE   OFFS..   XDATA          ?XD?MAIN?188
008014H   008014H   000001H   BYTE   OFFS..   XDATA          ?XD?MAIN?202
008015H   008015H   000001H   BYTE   OFFS..   XDATA          ?XD?MAIN?215
008016H   008016H   000001H   BYTE   OFFS..   XDATA          ?XD?MAIN?10
008017H   008017H   000001H   BYTE   OFFS..   XDATA          ?XD?MAIN?20
008018H   008018H   000001H   BYTE   OFFS..   XDATA          ?XD?MAIN?158
008019H   008019H   000001H   BYTE   OFFS..   XDATA          ?XD?MAIN?173
00801AH   00801AH   000001H   BYTE   OFFS..   XDATA          ?XD?MAIN?187
00801BH   00801BH   000001H   BYTE   OFFS..   XDATA          ?XD?MAIN?201
00801CH   00801CH   000001H   BYTE   OFFS..   XDATA          ?XD?MAIN?214
00801DH   00801DH   000001H   BYTE   OFFS..   XDATA          ?XD?MAIN?9
00801EH   00801EH   000001H   BYTE   OFFS..   XDATA          ?XD?MAIN?19
00801FH   00801FH   000001H   BYTE   OFFS..   XDATA          ?XD?MAIN?27
008020H   008020H   000001H   BYTE   OFFS..   XDATA          ?XD?MAIN?172
008021H   008021H   000001H   BYTE   OFFS..   XDATA          ?XD?MAIN?186
008022H   008022H   000001H   BYTE   OFFS..   XDATA          ?XD?MAIN?200
008023H   008023H   000001H   BYTE   OFFS..   XDATA          ?XD?MAIN?213
008024H   008024H   000001H   BYTE   OFFS..   XDATA          ?XD?MAIN?8
008025H   008025H   000001H   BYTE   OFFS..   XDATA          ?XD?MAIN?18
008026H   008026H   000001H   BYTE   OFFS..   XDATA          ?XD?MAIN?26
008027H   008027H   000001H   BYTE   OFFS..   XDATA          ?XD?MAIN?34
008028H   008028H   000001H   BYTE   OFFS..   XDATA          ?XD?MAIN?185
008029H   008029H   000001H   BYTE   OFFS..   XDATA          ?XD?MAIN?199
00802AH   00802AH   000001H   BYTE   OFFS..   XDATA          ?XD?MAIN?212
00802BH   00802BH   000001H   BYTE   OFFS..   XDATA          ?XD?MAIN?7
00802CH   00802CH   000001H   BYTE   OFFS..   XDATA          ?XD?MAIN?17
00802DH   00802DH   000001H   BYTE   OFFS..   XDATA          ?XD?MAIN?25
00802EH   00802EH   000001H   BYTE   OFFS..   XDATA          ?XD?MAIN?33
00802FH   00802FH   000001H   BYTE   OFFS..   XDATA          ?XD?MAIN?38
008030H   008030H   000001H   BYTE   OFFS..   XDATA          ?XD?MAIN?198
008031H   008031H   000001H   BYTE   OFFS..   XDATA          ?XD?MAIN?211
008032H   008032H   000001H   BYTE   OFFS..   XDATA          ?XD?MAIN?6
008033H   008033H   000001H   BYTE   OFFS..   XDATA          ?XD?MAIN?16
008034H   008034H   000001H   BYTE   OFFS..   XDATA          ?XD?MAIN?24
008035H   008035H   000001H   BYTE   OFFS..   XDATA          ?XD?MAIN?32
008036H   008036H   000001H   BYTE   OFFS..   XDATA          ?XD?MAIN?37
008037H   008037H   000001H   BYTE   OFFS..   XDATA          ?XD?MAIN?39
008038H   008038H   000001H   BYTE   OFFS..   XDATA          ?XD?MAIN?210
008039H   008039H   000001H   BYTE   OFFS..   XDATA          ?XD?MAIN?5
00803AH   00803AH   000001H   BYTE   OFFS..   XDATA          ?XD?MAIN?15
00803BH   00803BH   000001H   BYTE   OFFS..   XDATA          ?XD?MAIN?23
00803CH   00803CH   000001H   BYTE   OFFS..   XDATA          ?XD?MAIN?31
00803DH   00803DH   000001H   BYTE   OFFS..   XDATA          ?XD?MAIN?36
00803EH   00803FH   000002H   ---    ---      **GAP**
008040H   008040H   000001H   BYTE   OFFS..   XDATA          ?XD?MAIN?74
008041H   008041H   000001H   BYTE   OFFS..   XDATA          ?XD?MAIN?77
008042H   008042H   000001H   BYTE   OFFS..   XDATA          ?XD?MAIN?103
008043H   008047H   000005H   ---    ---      **GAP**
LX51 LINKER/LOCATER V4.66.97.0                                                        04/10/2021  13:15:07  PAGE 7


008048H   008048H   000001H   BYTE   OFFS..   XDATA          ?XD?MAIN?57
008049H   008049H   000001H   BYTE   OFFS..   XDATA          ?XD?MAIN?58
00804AH   00804AH   000001H   BYTE   OFFS..   XDATA          ?XD?MAIN?59
00804BH   00804BH   000001H   BYTE   OFFS..   XDATA          ?XD?MAIN?60
00804CH   00804CH   000001H   BYTE   OFFS..   XDATA          ?XD?MAIN?127
00804DH   00804DH   000001H   BYTE   OFFS..   XDATA          ?XD?MAIN?197
00804EH   00804EH   000001H   BYTE   OFFS..   XDATA          ?XD?MAIN?30
00804FH   00804FH   000001H   ---    ---      **GAP**
008050H   008050H   000001H   BYTE   OFFS..   XDATA          ?XD?MAIN?108
008051H   008051H   000001H   BYTE   OFFS..   XDATA          ?XD?MAIN?104
008052H   008052H   000001H   BYTE   OFFS..   XDATA          ?XD?MAIN?110
008053H   008053H   000001H   BYTE   OFFS..   XDATA          ?XD?MAIN?105
008054H   008054H   000001H   BYTE   OFFS..   XDATA          ?XD?MAIN?112
008055H   008055H   000001H   BYTE   OFFS..   XDATA          ?XD?MAIN?106
008056H   008056H   000001H   BYTE   OFFS..   XDATA          ?XD?MAIN?114
008057H   008057H   000001H   BYTE   OFFS..   XDATA          ?XD?MAIN?107
008058H   008058H   000001H   BYTE   OFFS..   XDATA          ?XD?MAIN?81
008059H   008059H   000001H   BYTE   OFFS..   XDATA          ?XD?MAIN?56
00805AH   00805AH   000001H   BYTE   OFFS..   XDATA          ?XD?MAIN?54
00805BH   00805BH   000001H   BYTE   OFFS..   XDATA          ?XD?MAIN?48
00805CH   00805CH   000001H   BYTE   OFFS..   XDATA          ?XD?MAIN?47
00805DH   00805FH   000003H   ---    ---      **GAP**
008060H   008060H   000001H   BYTE   OFFS..   XDATA          ?XD?MAIN?88
008061H   008061H   000001H   BYTE   OFFS..   XDATA          ?XD?MAIN?73
008062H   008062H   000001H   BYTE   OFFS..   XDATA          ?XD?MAIN?83
008063H   008063H   000001H   BYTE   OFFS..   XDATA          ?XD?MAIN?76
008064H   008064H   000001H   BYTE   OFFS..   XDATA          ?XD?MAIN?79
008065H   008065H   000001H   BYTE   OFFS..   XDATA          ?XD?MAIN?80
008066H   008066H   000001H   BYTE   OFFS..   XDATA          ?XD?MAIN?157
008067H   008067H   000001H   BYTE   OFFS..   XDATA          ?XD?MAIN?22
008068H   008068H   000001H   BYTE   OFFS..   XDATA          ?XD?MAIN?90
008069H   008069H   000001H   BYTE   OFFS..   XDATA          ?XD?MAIN?92
00806AH   00806AH   000001H   BYTE   OFFS..   XDATA          ?XD?MAIN?93
00806BH   00806BH   000001H   BYTE   OFFS..   XDATA          ?XD?MAIN?94
00806CH   00806CH   000001H   BYTE   OFFS..   XDATA          ?XD?MAIN?95
00806DH   00806DH   000001H   BYTE   OFFS..   XDATA          ?XD?MAIN?96
00806EH   00806EH   000001H   BYTE   OFFS..   XDATA          ?XD?MAIN?97
00806FH   00806FH   000001H   BYTE   OFFS..   XDATA          ?XD?MAIN?98
008070H   008070H   000001H   BYTE   OFFS..   XDATA          ?XD?MAIN?100
008071H   008071H   000001H   BYTE   OFFS..   XDATA          ?XD?MAIN?101
008072H   008072H   000001H   BYTE   OFFS..   XDATA          ?XD?MAIN?41
008073H   008073H   000001H   BYTE   OFFS..   XDATA          ?XD?MAIN?42
008074H   008074H   000001H   BYTE   OFFS..   XDATA          ?XD?MAIN?87
008075H   008077H   000003H   ---    ---      **GAP**
008078H   008078H   000001H   BYTE   OFFS..   XDATA          ?XD?MAIN?29
008079H   008079H   000001H   BYTE   OFFS..   XDATA          ?XD?MAIN?44
00807AH   00807AH   000001H   BYTE   OFFS..   XDATA          ?XD?MAIN?40
00807BH   00807BH   000001H   BYTE   OFFS..   XDATA          ?XD?MAIN?82
00807CH   00807CH   000001H   BYTE   OFFS..   XDATA          ?XD?MAIN?75
00807DH   00807DH   000001H   BYTE   OFFS..   XDATA          ?XD?MAIN?102
00807EH   00807EH   000001H   BYTE   OFFS..   XDATA          ?XD?MAIN?99
00807FH   00807FH   000001H   ---    ---      **GAP**
008080H   008080H   000001H   BYTE   OFFS..   XDATA          ?XD?MAIN?116
008081H   008081H   000001H   BYTE   OFFS..   XDATA          ?XD?MAIN?121
008082H   008082H   000001H   BYTE   OFFS..   XDATA          ?XD?MAIN?117
008083H   008083H   000001H   BYTE   OFFS..   XDATA          ?XD?MAIN?68
008084H   008084H   000001H   BYTE   OFFS..   XDATA          ?XD?MAIN?64
008085H   008085H   000001H   BYTE   OFFS..   XDATA          ?XD?MAIN?70
008086H   008086H   000001H   BYTE   OFFS..   XDATA          ?XD?MAIN?67
008087H   008087H   000001H   BYTE   OFFS..   XDATA          ?XD?MAIN?109
008088H   008088H   000001H   BYTE   OFFS..   XDATA          ?XD?MAIN?55
008089H   008089H   000001H   BYTE   OFFS..   XDATA          ?XD?MAIN?52
00808AH   00808AH   000001H   BYTE   OFFS..   XDATA          ?XD?MAIN?69
00808BH   00808BH   000001H   BYTE   OFFS..   XDATA          ?XD?MAIN?66
00808CH   00808CH   000001H   BYTE   OFFS..   XDATA          ?XD?MAIN?65
LX51 LINKER/LOCATER V4.66.97.0                                                        04/10/2021  13:15:07  PAGE 8


00808DH   00808DH   000001H   BYTE   OFFS..   XDATA          ?XD?MAIN?62
00808EH   00808FH   000002H   ---    ---      **GAP**
008090H   008090H   000001H   BYTE   OFFS..   XDATA          ?XD?MAIN?86
008091H   008091H   000001H   BYTE   OFFS..   XDATA          ?XD?MAIN?85
008092H   008092H   000001H   BYTE   OFFS..   XDATA          ?XD?MAIN?184
008093H   008093H   000001H   BYTE   OFFS..   XDATA          ?XD?MAIN?138
008094H   0080FFH   00006CH   ---    ---      **GAP**
008100H   008100H   000001H   BYTE   OFFS..   XDATA          ?XD?MAIN?46
008101H   008101H   000001H   BYTE   OFFS..   XDATA          ?XD?MAIN?63
008102H   008102H   000001H   ---    ---      **GAP**
008103H   008103H   000001H   BYTE   OFFS..   XDATA          ?XD?MAIN?45
008104H   008105H   000002H   ---    ---      **GAP**
008106H   008106H   000001H   BYTE   OFFS..   XDATA          ?XD?MAIN?71
008107H   008107H   000001H   BYTE   OFFS..   XDATA          ?XD?MAIN?171
008108H   008108H   000001H   BYTE   OFFS..   XDATA          ?XD?MAIN?28
008109H   008109H   000001H   BYTE   OFFS..   XDATA          ?XD?MAIN?170
00810AH   00810AH   000001H   BYTE   OFFS..   XDATA          ?XD?MAIN?35
00810BH   00810BH   000001H   BYTE   OFFS..   XDATA          ?XD?MAIN?51
00810CH   00810CH   000001H   BYTE   OFFS..   XDATA          ?XD?MAIN?49
00810DH   00810DH   000001H   BYTE   OFFS..   XDATA          ?XD?MAIN?53
00810EH   00810EH   000001H   BYTE   OFFS..   XDATA          ?XD?MAIN?50
00810FH   00810FH   000001H   BYTE   OFFS..   XDATA          ?XD?MAIN?84
008110H   008110H   000001H   BYTE   OFFS..   XDATA          ?XD?MAIN?89
008111H   008116H   000006H   ---    ---      **GAP**
008117H   008117H   000001H   BYTE   OFFS..   XDATA          ?XD?MAIN?113
008118H   00811DH   000006H   ---    ---      **GAP**
00811EH   00811EH   000001H   BYTE   OFFS..   XDATA          ?XD?MAIN?4
00811FH   00811FH   000001H   BYTE   OFFS..   XDATA          ?XD?MAIN?43
008120H   008120H   000001H   BYTE   OFFS..   XDATA          ?XD?MAIN?120
008121H   008121H   000001H   BYTE   OFFS..   XDATA          ?XD?MAIN?123
008122H   008122H   000001H   BYTE   OFFS..   XDATA          ?XD?MAIN?126
008123H   008123H   000001H   BYTE   OFFS..   XDATA          ?XD?MAIN?131
008124H   008124H   000001H   BYTE   OFFS..   XDATA          ?XD?MAIN?137
008125H   008125H   000001H   BYTE   OFFS..   XDATA          ?XD?MAIN?146
008126H   008126H   000001H   BYTE   OFFS..   XDATA          ?XD?MAIN?156
008127H   008127H   000001H   BYTE   OFFS..   XDATA          ?XD?MAIN?169
008128H   008128H   000001H   BYTE   OFFS..   XDATA          ?XD?MAIN?122
008129H   008129H   000001H   BYTE   OFFS..   XDATA          ?XD?MAIN?125
00812AH   00812AH   000001H   BYTE   OFFS..   XDATA          ?XD?MAIN?130
00812BH   00812BH   000001H   BYTE   OFFS..   XDATA          ?XD?MAIN?136
00812CH   00812CH   000001H   BYTE   OFFS..   XDATA          ?XD?MAIN?145
00812DH   00812DH   000001H   BYTE   OFFS..   XDATA          ?XD?MAIN?155
00812EH   00812EH   000001H   BYTE   OFFS..   XDATA          ?XD?MAIN?168
00812FH   00812FH   000001H   BYTE   OFFS..   XDATA          ?XD?MAIN?183
008130H   008130H   000001H   BYTE   OFFS..   XDATA          ?XD?MAIN?124
008131H   008131H   000001H   BYTE   OFFS..   XDATA          ?XD?MAIN?129
008132H   008132H   000001H   BYTE   OFFS..   XDATA          ?XD?MAIN?135
008133H   008133H   000001H   BYTE   OFFS..   XDATA          ?XD?MAIN?144
008134H   008134H   000001H   BYTE   OFFS..   XDATA          ?XD?MAIN?154
008135H   008135H   000001H   BYTE   OFFS..   XDATA          ?XD?MAIN?167
008136H   008136H   000001H   BYTE   OFFS..   XDATA          ?XD?MAIN?182
008137H   008137H   000001H   BYTE   OFFS..   XDATA          ?XD?MAIN?196
008138H   008138H   000001H   BYTE   OFFS..   XDATA          ?XD?MAIN?128
008139H   008139H   000001H   BYTE   OFFS..   XDATA          ?XD?MAIN?134
00813AH   00813AH   000001H   BYTE   OFFS..   XDATA          ?XD?MAIN?143
00813BH   00813BH   000001H   BYTE   OFFS..   XDATA          ?XD?MAIN?153
00813CH   00813CH   000001H   BYTE   OFFS..   XDATA          ?XD?MAIN?166
00813DH   00813DH   000001H   BYTE   OFFS..   XDATA          ?XD?MAIN?181
00813EH   00813EH   000001H   BYTE   OFFS..   XDATA          ?XD?MAIN?195
00813FH   00813FH   000001H   BYTE   OFFS..   XDATA          ?XD?MAIN?209
008140H   008140H   000001H   BYTE   OFFS..   XDATA          ?XD?MAIN?133
008141H   008141H   000001H   BYTE   OFFS..   XDATA          ?XD?MAIN?142
008142H   008142H   000001H   BYTE   OFFS..   XDATA          ?XD?MAIN?152
008143H   008143H   000001H   BYTE   OFFS..   XDATA          ?XD?MAIN?165
008144H   008144H   000001H   BYTE   OFFS..   XDATA          ?XD?MAIN?180
LX51 LINKER/LOCATER V4.66.97.0                                                        04/10/2021  13:15:07  PAGE 9


008145H   008145H   000001H   BYTE   OFFS..   XDATA          ?XD?MAIN?194
008146H   008146H   000001H   BYTE   OFFS..   XDATA          ?XD?MAIN?208
008147H   008147H   000001H   BYTE   OFFS..   XDATA          ?XD?MAIN?3
008148H   008148H   000001H   BYTE   OFFS..   XDATA          ?XD?MAIN?141
008149H   008149H   000001H   BYTE   OFFS..   XDATA          ?XD?MAIN?151
00814AH   00814AH   000001H   BYTE   OFFS..   XDATA          ?XD?MAIN?164
00814BH   00814BH   000001H   BYTE   OFFS..   XDATA          ?XD?MAIN?179
00814CH   00814CH   000001H   BYTE   OFFS..   XDATA          ?XD?MAIN?193
00814DH   00814DH   000001H   BYTE   OFFS..   XDATA          ?XD?MAIN?207
00814EH   00814EH   000001H   BYTE   OFFS..   XDATA          ?XD?MAIN?2
00814FH   00814FH   000001H   BYTE   OFFS..   XDATA          ?XD?MAIN?14
008150H   008150H   000001H   BYTE   OFFS..   XDATA          ?XD?MAIN?150
008151H   008151H   000001H   BYTE   OFFS..   XDATA          ?XD?MAIN?163
008152H   008152H   000001H   BYTE   OFFS..   XDATA          ?XD?MAIN?178
008153H   008153H   000001H   BYTE   OFFS..   XDATA          ?XD?MAIN?192
008154H   008154H   000001H   BYTE   OFFS..   XDATA          ?XD?MAIN?206
008155H   008155H   000001H   BYTE   OFFS..   XDATA          ?XD?MAIN?1
008156H   008156H   000001H   BYTE   OFFS..   XDATA          ?XD?MAIN?13
008157H   008157H   000001H   BYTE   OFFS..   XDATA          ?XD?MAIN?21
008158H   008158H   000001H   BYTE   OFFS..   XDATA          ?XD?MAIN?162
008159H   008159H   000001H   BYTE   OFFS..   XDATA          ?XD?MAIN?177
00815AH   00815AH   000001H   BYTE   OFFS..   XDATA          ?XD?MAIN?191
00815BH   00815BH   000001H   BYTE   OFFS..   XDATA          ?XD?MAIN?205
00815CH   00815CH   000001H   BYTE   OFFS..   XDATA          ?XD?MAIN?0
00815DH   00815DH   000001H   BYTE   OFFS..   XDATA          ?XD?MAIN?12
00815EH   00FBFFH   007AA2H   ---    ---      **GAP**
00FC00H   00FC00H   000001H   BYTE   OFFS..   XDATA          ?XD?MAIN?119
00FC01H   00FC01H   000001H   BYTE   OFFS..   XDATA          ?XD?MAIN?115
00FC02H   00FC02H   000001H   BYTE   OFFS..   XDATA          ?XD?MAIN?118
00FC03H   00FC03H   000001H   BYTE   OFFS..   XDATA          ?XD?MAIN?61
00FC04H   00FC04H   000001H   BYTE   OFFS..   XDATA          ?XD?MAIN?111
00FC05H   00FC05H   000001H   BYTE   OFFS..   XDATA          ?XD?MAIN?78
00FC06H   00FC06H   000001H   BYTE   OFFS..   XDATA          ?XD?MAIN?72
00FC07H   00FC07H   000001H   BYTE   OFFS..   XDATA          ?XD?MAIN?91

* * * * * * * * *   R E M O V E D     S E G M E N T S   * * * * * * * *
   *DEL*:           00000FH   BYTE   UNIT     CODE           ?PR?SYS_CLK_SET_IRCH?SYSTEM_CLOCK
   *DEL*:           000011H   BYTE   UNIT     CODE           ?PR?SYS_CLK_SET_IRCL?SYSTEM_CLOCK
   *DEL*:           000022H   BYTE   UNIT     CODE           ?PR?SYS_CLK_SET_XOSCL?SYSTEM_CLOCK
   *DEL*:           000011H   BYTE   UNIT     CODE           ?PR?SYS_CLK_SET_TFRC?SYSTEM_CLOCK
   *DEL*:           000028H   BYTE   UNIT     CODE           ?PR?_ADC_INIT?ADC
   *DEL*:           000004H   BYTE   UNIT     XDATA          ?XD?_ADC_INIT?ADC
   *DEL*:           000023H   BYTE   UNIT     CODE           ?PR?GETADCVALUE?ADC
   *DEL*:           000007H   BYTE   UNIT     CODE           ?PR?ADC_USER_INIT?BSP
   *DEL*:           000001H   BYTE   UNIT     CODE           ?PR?BSP_INIT?BSP
   *DEL*:           000029H   BYTE   UNIT     CODE           ?PR?RING_VOL_PRINTF?RING
   *DEL*:           000001H   BYTE   UNIT     CODE           ?PR?TURN_ON_TONE?RING
   *DEL*:           000052H   BYTE   UNIT     CODE           ?PR?_SEND_BYTE?RING
   *DEL*:           000002H   BYTE   UNIT     XDATA          ?XD?_SEND_BYTE?RING
   *DEL*:           00003FH   BYTE   UNIT     CONST          ?CO?RING
   *DEL*:           000001H   BYTE   UNIT     CODE           ?PR?TEST_5V_CONFIG_IO_IN?BAT
   *DEL*:           000001H   BYTE   UNIT     CODE           ?PR?TEST_5V_CONFIG_ADC_IN?BAT
   *DEL*:           00000DH   BYTE   UNIT     CODE           ?PR?RING_AMP_CLOSE?BAT
   *DEL*:           000030H   BYTE   UNIT     CODE           ?PR?BL_PRINTF?BL
   *DEL*:           00000EH   BYTE   UNIT     CODE           ?PR?_GET_DVALUE_U8?BL
   *DEL*:           00002CH   BYTE   UNIT     CONST          ?CO?BL



OVERLAY MAP OF MODULE:   .\output\F0790 (?C_STARTUP)


FUNCTION/MODULE                                BIT_GROUP   DATA_GROUP   XDATA_GROUP
--> CALLED FUNCTION/MODULE                    START  STOP  START  STOP  START  STOP
===================================================================================
LX51 LINKER/LOCATER V4.66.97.0                                                        04/10/2021  13:15:07  PAGE 10


?C_C51STARTUP                                 ----- -----  ----- -----  ----- -----
  +--> MAIN/MAIN
  +--> ?C_INITSEG

MAIN/MAIN                                     ----- -----  ----- -----  ----- -----
  +--> _SYS_CLK_SET_PLL/SYSTEM_CLOCK
  +--> _UART0_INITIAL/UART
  +--> TIMER_INIT/TIMER
  +--> RTC_INIT/RTC
  +--> LCD_INIT/LCD
  +--> BL_INIT/BL
  +--> RING_INIT/RING
  +--> SWITCH_ADC_INIT/SWITCH
  +--> TEST_5V_INIT/BAT
  +--> BAT_ADC_INIT/BAT
  +--> SWITCH_LED_MOD_INIT/SWITCH
  +--> MOTOR_INIT/MOTOR
  +--> NO_USE_IO_INIT/BSP
  +--> RTC_ALARM_OPERA/RTC
  +--> MOTOR_PRO/MOTOR
  +--> TEST_5V_IN/BAT
  +--> KEY_PROCESS/KEY_APP
  +--> LCD_DISPLAY/LCD
  +--> KEY_NO_ACTION_TEST/KEY_APP
  +--> LOW_VOL_OPERA/BAT
  +--> BL_HANDLER/BL
  +--> RING_VOL_ADJUST_HANDLER/RING
  +--> BAT_VOL_TEST/BAT
  +--> GET_VOLUME_AND_MODE/SWITCH
  +--> LED_MOD_DETECT/SWITCH
  +--> SNOOZE_ALARM_TEST/RTC
  +--> ALARMED_TIME_TEST/RTC
  +--> NOTHING_ACTION_TEST/BAT
  +--> GET_CALENDAR/RTC
  +--> ALARM_TEST/RTC
  +--> TEST_5V_IN_LOWSPEED/BAT

_SYS_CLK_SET_PLL/SYSTEM_CLOCK                 ----- -----  ----- -----  ----- -----

_UART0_INITIAL/UART                           ----- -----  ----- -----  0000H 0003H

TIMER_INIT/TIMER                              ----- -----  ----- -----  ----- -----

RTC_INIT/RTC                                  ----- -----  ----- -----  ----- -----
  +--> _DELAY_50US/DELAY
  +--> UPDATA_CALENDAR/RTC

_DELAY_50US/DELAY                             ----- -----  ----- -----  000CH 000DH

UPDATA_CALENDAR/RTC                           ----- -----  ----- -----  ----- -----
  +--> _SET_RTC/RTC
  +--> GET_CALENDAR/RTC

_SET_RTC/RTC                                  ----- -----  ----- -----  0000H 000BH
  +--> _IS_LEAP_YEAR/RTC
  +--> _GET_WEEK/RTC
  +--> _DELAY_50US/DELAY

_IS_LEAP_YEAR/RTC                             ----- -----  ----- -----  ----- -----

_GET_WEEK/RTC                                 ----- -----  ----- -----  000CH 0010H

GET_CALENDAR/RTC                              ----- -----  ----- -----  0000H 0003H
  +--> _IS_LEAP_YEAR/RTC

LX51 LINKER/LOCATER V4.66.97.0                                                        04/10/2021  13:15:07  PAGE 11


LCD_INIT/LCD                                  ----- -----  ----- -----  ----- -----
  +--> LCD_CLEAR/LCD

LCD_CLEAR/LCD                                 ----- -----  ----- -----  ----- -----
  +--> _SMG1_DEAL/LCD
  +--> _SMG2_DEAL/LCD
  +--> _SMG3_DEAL/LCD
  +--> _SMG4_DEAL/LCD

_SMG1_DEAL/LCD                                ----- -----  ----- -----  ----- -----

_SMG2_DEAL/LCD                                ----- -----  ----- -----  ----- -----

_SMG3_DEAL/LCD                                ----- -----  ----- -----  ----- -----

_SMG4_DEAL/LCD                                ----- -----  ----- -----  ----- -----

BL_INIT/BL                                    ----- -----  ----- -----  ----- -----
  +--> BL_ADJUST_AD_INIT/BL
  +--> _GET_ADJUST_AD_VALUE/BL
  +--> BL_PARAM_INIT/BL
  +--> _GET_BL_PWM_DUTY_VALUE/BL

BL_ADJUST_AD_INIT/BL                          ----- -----  ----- -----  ----- -----

_GET_ADJUST_AD_VALUE/BL                       ----- -----  ----- -----  0003H 0008H
  +--> _GETCHANNELADCVALUE/ADC

_GETCHANNELADCVALUE/ADC                       ----- -----  ----- -----  ----- -----
  +--> _ADC_CONFIGCHANNEL/ADC
  +--> ADC_STARTCONVERSION/ADC

_ADC_CONFIGCHANNEL/ADC                        ----- -----  ----- -----  ----- -----

ADC_STARTCONVERSION/ADC                       ----- -----  ----- -----  ----- -----

BL_PARAM_INIT/BL                              ----- -----  ----- -----  ----- -----
  +--> _SET_BL_PARAM/BL

_SET_BL_PARAM/BL                              ----- -----  ----- -----  0003H 000DH

_GET_BL_PWM_DUTY_VALUE/BL                     ----- -----  ----- -----  0003H 000DH

RING_INIT/RING                                ----- -----  ----- -----  ----- -----
  +--> RING_VOL_AD_INIT/RING
  +--> _GET_ADJUST_AD_VALUE/BL
  +--> GET_CURRENT_VOL_LEVEL/RING

RING_VOL_AD_INIT/RING                         ----- -----  ----- -----  ----- -----

GET_CURRENT_VOL_LEVEL/RING                    ----- -----  ----- -----  0002H 0011H
  +--> _GET_DVALUE_U16/BL

_GET_DVALUE_U16/BL                            ----- -----  ----- -----  ----- -----

SWITCH_ADC_INIT/SWITCH                        ----- -----  ----- -----  ----- -----

TEST_5V_INIT/BAT                              ----- -----  ----- -----  ----- -----

BAT_ADC_INIT/BAT                              ----- -----  ----- -----  ----- -----

SWITCH_LED_MOD_INIT/SWITCH                    ----- -----  ----- -----  ----- -----

MOTOR_INIT/MOTOR                              ----- -----  ----- -----  ----- -----

LX51 LINKER/LOCATER V4.66.97.0                                                        04/10/2021  13:15:07  PAGE 12


NO_USE_IO_INIT/BSP                            ----- -----  ----- -----  ----- -----

RTC_ALARM_OPERA/RTC                           ----- -----  ----- -----  ----- -----
  +--> ALARM_SHAKE/MOTOR
  +--> ALARM_TONE/RING
  +--> MOTOR_STOP/MOTOR
  +--> RING_STOP/RING

ALARM_SHAKE/MOTOR                             ----- -----  ----- -----  ----- -----
  +--> _MOTOR_START/MOTOR

_MOTOR_START/MOTOR                            ----- -----  ----- -----  ----- -----
  +--> _MOTOR_ENABLE/MOTOR

_MOTOR_ENABLE/MOTOR                           ----- -----  ----- -----  ----- -----

ALARM_TONE/RING                               ----- -----  ----- -----  ----- -----
  +--> _SEND_RING_CMD/RING

_SEND_RING_CMD/RING                           ----- -----  ----- -----  ----- -----

MOTOR_STOP/MOTOR                              ----- -----  ----- -----  ----- -----
  +--> MOTOR_DISABLE/MOTOR

MOTOR_DISABLE/MOTOR                           ----- -----  ----- -----  ----- -----
  +--> _DELAY_50US/DELAY

RING_STOP/RING                                ----- -----  ----- -----  ----- -----
  +--> _SEND_RING_CMD/RING

MOTOR_PRO/MOTOR                               ----- -----  ----- -----  ----- -----
  +--> MOTOR_DISABLE/MOTOR
  +--> _MOTOR_ENABLE/MOTOR

TEST_5V_IN/BAT                                ----- -----  ----- -----  ----- -----
  +--> BL_CLOSE/BL
  +--> ENTER_LOW_SPEED_MODE/BAT

BL_CLOSE/BL                                   ----- -----  ----- -----  ----- -----

ENTER_LOW_SPEED_MODE/BAT                      ----- -----  ----- -----  ----- -----
  +--> LCD_CLEAR/LCD
  +--> BL_CLOSE/BL
  +--> RING_CLOSE/RING
  +--> CLOSE_SWITCH_ADC_PIN/SWITCH
  +--> CLOSE_BAT_ADC/BAT
  +--> CLOSE_KEY_AD/KEY
  +--> _DELAY_MS/DELAY

RING_CLOSE/RING                               ----- -----  ----- -----  ----- -----

CLOSE_SWITCH_ADC_PIN/SWITCH                   ----- -----  ----- -----  ----- -----

CLOSE_BAT_ADC/BAT                             ----- -----  ----- -----  ----- -----

CLOSE_KEY_AD/KEY                              ----- -----  ----- -----  ----- -----

_DELAY_MS/DELAY                               ----- -----  ----- -----  0000H 0001H
  +--> _DELAY_50US/DELAY

KEY_PROCESS/KEY_APP                           ----- -----  ----- -----  ----- -----
  +--> BSP_KEYSCAN10MS/KEY
  +--> BSP_GETKEY/KEY
  +--> KEY_12_24H_SHORT_UP_HANDLER/KEY_APP
  +--> KEY_12_24H_LONG_PRESS_HANDLER/KEY_APP
LX51 LINKER/LOCATER V4.66.97.0                                                        04/10/2021  13:15:07  PAGE 13


  +--> KEY_UP_HANDLER/KEY_APP
  +--> KEY_DOWN_HANDLER/KEY_APP
  +--> KEY_AL1_SHORT_UP_HANDLER/KEY_APP
  +--> KEY_AL1_LONG_PRESS_HANDLER/KEY_APP
  +--> KEY_AL2_SHORT_UP_HANDLER/KEY_APP
  +--> KEY_AL2_LONG_PRESS_HANDLER/KEY_APP
  +--> KEY_SNOOZE_SHORT_UP_HANDLER/KEY_APP
  +--> KEY_SNOOZE_LONG_HANDLER/KEY_APP
  +--> KEY_UP_DOWN_DOUBLE_HANDLER/KEY_APP
  +--> KEY_ALARM_SET_SHORT_PRESS_HANDLER/KEY_APP
  +--> KEY_ALARM_SET_SHORT_UP_HANDLER/KEY_APP
  +--> KEY_ALARM_SET_LONG_PRESS_HANDLER/KEY_APP

BSP_KEYSCAN10MS/KEY                           ----- -----  ----- -----  0000H 0000H
  +--> _GETCHANNELADCVALUE/ADC
  +--> _UART_PRINTF/UART
  +--> _BSP_DETECTKEY/KEY

_UART_PRINTF/UART                             ----- -----  ----- -----  0001H 012EH
  +--> _VSPRINTF/VSPRINTF
  +--> _UARTPUTSTR/UART

_VSPRINTF/VSPRINTF                            ----- -----  ----- -----  012FH 0134H
  +--> PRINTF/PRINTF

PRINTF/PRINTF                                 20H.0 21H.0  0008H 000CH  0135H 0164H
  +--> PUTCHAR/PUTCHAR

PUTCHAR/PUTCHAR                               ----- -----  ----- -----  ----- -----

_UARTPUTSTR/UART                              ----- -----  ----- -----  012FH 0131H
  +--> _UART0_PUTCHAR/UART

_UART0_PUTCHAR/UART                           ----- -----  ----- -----  ----- -----

_BSP_DETECTKEY/KEY                            ----- -----  ----- -----  0001H 0005H
  +--> _ISKEYDOWNFUNC/KEY
  +--> _BSP_PUTKEY/KEY

_ISKEYDOWNFUNC/KEY                            ----- -----  ----- -----  ----- -----
  +--> _KEYPINACTIVE/KEY

_KEYPINACTIVE/KEY                             ----- -----  ----- -----  ----- -----

_BSP_PUTKEY/KEY                               ----- -----  ----- -----  ----- -----

BSP_GETKEY/KEY                                ----- -----  ----- -----  ----- -----

KEY_12_24H_SHORT_UP_HANDLER/KEY_APP           ----- -----  ----- -----  ----- -----
  +--> LCD_CLEAR/LCD
  +--> _ALARM_STOP_KEY_FUNCTION/KEY_APP
  +--> TEST_TIME_SET_STEP/KEY_APP

_ALARM_STOP_KEY_FUNCTION/KEY_APP              ----- -----  ----- -----  ----- -----

TEST_TIME_SET_STEP/KEY_APP                    ----- -----  ----- -----  ----- -----
  +--> LCD_CLEAR/LCD

KEY_12_24H_LONG_PRESS_HANDLER/KEY_APP         ----- -----  ----- -----  ----- -----
  +--> LCD_CLEAR/LCD

KEY_UP_HANDLER/KEY_APP                        ----- -----  ----- -----  ----- -----
  +--> LCD_CLEAR/LCD
  +--> _ALARM_STOP_KEY_FUNCTION/KEY_APP
  +--> SET_CLOCK_ADD/KEY_APP
LX51 LINKER/LOCATER V4.66.97.0                                                        04/10/2021  13:15:07  PAGE 14


  +--> SET_ALARM_ADD/KEY_APP

SET_CLOCK_ADD/KEY_APP                         ----- -----  ----- -----  ----- -----
  +--> _IS_OVER_MAX_DAYS/RTC
  +--> _SET_MAX_DAYS_OF_MONTH/RTC
  +--> _IS_LEAP_YEAR/RTC
  +--> UPDATA_CALENDAR/RTC

_IS_OVER_MAX_DAYS/RTC                         ----- -----  ----- -----  ----- -----
  +--> _IS_LEAP_YEAR/RTC

_SET_MAX_DAYS_OF_MONTH/RTC                    ----- -----  ----- -----  ----- -----
  +--> _IS_LEAP_YEAR/RTC

SET_ALARM_ADD/KEY_APP                         ----- -----  ----- -----  ----- -----

KEY_DOWN_HANDLER/KEY_APP                      ----- -----  ----- -----  ----- -----
  +--> LCD_CLEAR/LCD
  +--> _ALARM_STOP_KEY_FUNCTION/KEY_APP
  +--> SET_CLOCK_SUB/KEY_APP
  +--> SET_ALARM_SUB/KEY_APP

SET_CLOCK_SUB/KEY_APP                         ----- -----  ----- -----  ----- -----
  +--> _IS_OVER_MAX_DAYS/RTC
  +--> _SET_MAX_DAYS_OF_MONTH/RTC
  +--> _IS_LEAP_YEAR/RTC
  +--> UPDATA_CALENDAR/RTC

SET_ALARM_SUB/KEY_APP                         ----- -----  ----- -----  ----- -----

KEY_AL1_SHORT_UP_HANDLER/KEY_APP              ----- -----  ----- -----  ----- -----
  +--> LCD_CLEAR/LCD
  +--> _ALARM_STOP_KEY_FUNCTION/KEY_APP
  +--> _TEST_ALARM_SET_STEP/KEY_APP

_TEST_ALARM_SET_STEP/KEY_APP                  ----- -----  ----- -----  ----- -----
  +--> LCD_CLEAR/LCD

KEY_AL1_LONG_PRESS_HANDLER/KEY_APP            ----- -----  ----- -----  ----- -----
  +--> _ENTER_ALARM_SETING/KEY_APP

_ENTER_ALARM_SETING/KEY_APP                   ----- -----  ----- -----  ----- -----
  +--> LCD_CLEAR/LCD

KEY_AL2_SHORT_UP_HANDLER/KEY_APP              ----- -----  ----- -----  ----- -----
  +--> LCD_CLEAR/LCD
  +--> _ALARM_STOP_KEY_FUNCTION/KEY_APP
  +--> _TEST_ALARM_SET_STEP/KEY_APP

KEY_AL2_LONG_PRESS_HANDLER/KEY_APP            ----- -----  ----- -----  ----- -----
  +--> _ENTER_ALARM_SETING/KEY_APP

KEY_SNOOZE_SHORT_UP_HANDLER/KEY_APP           ----- -----  ----- -----  ----- -----
  +--> LCD_CLEAR/LCD
  +--> MOTOR_STOP/MOTOR
  +--> RING_STOP/RING
  +--> ENTER_SNOOZE/RTC

ENTER_SNOOZE/RTC                              ----- -----  ----- -----  ----- -----

KEY_SNOOZE_LONG_HANDLER/KEY_APP               ----- -----  ----- -----  ----- -----
  +--> LCD_CLEAR/LCD

KEY_UP_DOWN_DOUBLE_HANDLER/KEY_APP            ----- -----  ----- -----  ----- -----
  +--> LCD_CLEAR/LCD
LX51 LINKER/LOCATER V4.66.97.0                                                        04/10/2021  13:15:07  PAGE 15


  +--> _LCD_NUM_DEAL/LCD
  +--> _LCD_SYMBOL_DEAL/LCD

_LCD_NUM_DEAL/LCD                             ----- -----  ----- -----  0002H 0003H
  +--> _SMG1_DEAL/LCD
  +--> _SMG2_DEAL/LCD
  +--> _SMG3_DEAL/LCD
  +--> _SMG4_DEAL/LCD

_LCD_SYMBOL_DEAL/LCD                          ----- -----  ----- -----  ----- -----

KEY_ALARM_SET_SHORT_PRESS_HANDLER/KEY_AP+     ----- -----  ----- -----  ----- -----
... P
  +--> _ALARM_STOP_KEY_FUNCTION/KEY_APP

KEY_ALARM_SET_SHORT_UP_HANDLER/KEY_APP        ----- -----  ----- -----  ----- -----
  +--> _ALARM_STOP_KEY_FUNCTION/KEY_APP
  +--> LCD_CLEAR/LCD

KEY_ALARM_SET_LONG_PRESS_HANDLER/KEY_APP      ----- -----  ----- -----  ----- -----
  +--> _ALARM_STOP_KEY_FUNCTION/KEY_APP
  +--> LCD_CLEAR/LCD

LCD_DISPLAY/LCD                               ----- -----  ----- -----  ----- -----
  +--> LCD_CLOCK_9V_POWER_ON_WAIT/LCD
  +--> LCD_CLOCK/LCD
  +--> LCD_SET_ALARM/LCD
  +--> LCD_SET_CLOCK/LCD
  +--> LCD_SET_SNOOZE_TIME/LCD
  +--> LCD_TEST/LCD
  +--> LCD_VOLUME_ADJUST/LCD

LCD_CLOCK_9V_POWER_ON_WAIT/LCD                ----- -----  ----- -----  ----- -----
  +--> _BL_BRIGHTNESS_SET/BL
  +--> KEY_AD_INIT/KEY
  +--> GET_CALENDAR/RTC

_BL_BRIGHTNESS_SET/BL                         ----- -----  ----- -----  ----- -----

KEY_AD_INIT/KEY                               ----- -----  ----- -----  ----- -----
  +--> BSP_INITKEYVAR/KEY

BSP_INITKEYVAR/KEY                            ----- -----  ----- -----  ----- -----

LCD_CLOCK/LCD                                 ----- -----  ----- -----  ----- -----
  +--> _SHOW_HOUR_MINUTE/LCD
  +--> _LCD_SYMBOL_DEAL/LCD

_SHOW_HOUR_MINUTE/LCD                         ----- -----  ----- -----  0000H 0001H
  +--> _LCD_SYMBOL_DEAL/LCD
  +--> _LCD_NUM_DEAL/LCD

LCD_SET_ALARM/LCD                             ----- -----  ----- -----  ----- -----
  +--> _LCD_NUM_DEAL/LCD
  +--> _LCD_SYMBOL_DEAL/LCD
  +--> _SHOW_HOUR_MINUTE/LCD
  +--> SHOW_ALARM_DAY_STYLE/LCD

SHOW_ALARM_DAY_STYLE/LCD                      ----- -----  ----- -----  ----- -----
  +--> _LCD_NUM_DEAL/LCD

LCD_SET_CLOCK/LCD                             ----- -----  ----- -----  ----- -----
  +--> _LCD_NUM_DEAL/LCD
  +--> _LCD_SYMBOL_DEAL/LCD
  +--> _SHOW_HOUR_MINUTE/LCD
LX51 LINKER/LOCATER V4.66.97.0                                                        04/10/2021  13:15:07  PAGE 16


  +--> SHOW_12_24HOURS/LCD
  +--> SHOW_YEAR/LCD
  +--> SHOW_MONTH_DAY/LCD

SHOW_12_24HOURS/LCD                           ----- -----  ----- -----  ----- -----
  +--> _LCD_NUM_DEAL/LCD

SHOW_YEAR/LCD                                 ----- -----  ----- -----  ----- -----
  +--> _LCD_NUM_DEAL/LCD

SHOW_MONTH_DAY/LCD                            ----- -----  ----- -----  ----- -----
  +--> _LCD_SYMBOL_DEAL/LCD
  +--> _LCD_NUM_DEAL/LCD

LCD_SET_SNOOZE_TIME/LCD                       ----- -----  ----- -----  0000H 0000H
  +--> _LCD_NUM_DEAL/LCD

LCD_TEST/LCD                                  ----- -----  ----- -----  ----- -----
  +--> _LCD_NUM_DEAL/LCD
  +--> _LCD_SYMBOL_DEAL/LCD
  +--> _MOTOR_START/MOTOR
  +--> MOTOR_STOP/MOTOR
  +--> ALARM_TONE/RING
  +--> RING_STOP/RING

LCD_VOLUME_ADJUST/LCD                         ----- -----  ----- -----  ----- -----
  +--> _LCD_NUM_DEAL/LCD

KEY_NO_ACTION_TEST/KEY_APP                    ----- -----  ----- -----  ----- -----
  +--> LCD_SHOW_ALL/LCD

LCD_SHOW_ALL/LCD                              ----- -----  ----- -----  ----- -----
  +--> _SMG1_DEAL/LCD
  +--> _SMG2_DEAL/LCD
  +--> _SMG3_DEAL/LCD
  +--> _SMG4_DEAL/LCD

LOW_VOL_OPERA/BAT                             ----- -----  ----- -----  ----- -----
  +--> _LCD_SYMBOL_DEAL/LCD

BL_HANDLER/BL                                 ----- -----  ----- -----  0000H 0002H
  +--> _GET_ADJUST_AD_VALUE/BL
  +--> _GET_DVALUE_U16/BL
  +--> _BL_BRIGHTNESS_SET/BL
  +--> _SET_BL_PARAM/BL
  +--> _GET_BL_PWM_DUTY_VALUE/BL

RING_VOL_ADJUST_HANDLER/RING                  ----- -----  ----- -----  0000H 0001H
  +--> _GET_ADJUST_AD_VALUE/BL
  +--> _GET_DVALUE_U16/BL
  +--> GET_CURRENT_VOL_LEVEL/RING

BAT_VOL_TEST/BAT                              ----- -----  ----- -----  ----- -----
  +--> _GETCHANNELADCVALUE/ADC

GET_VOLUME_AND_MODE/SWITCH                    ----- -----  ----- -----  ----- -----
  +--> _GET_CURRENT_SWITCH_LEVEL/SWITCH

_GET_CURRENT_SWITCH_LEVEL/SWITCH              ----- -----  ----- -----  0000H 0001H
  +--> _GETCHANNELADCVALUE/ADC

LED_MOD_DETECT/SWITCH                         ----- -----  ----- -----  ----- -----

SNOOZE_ALARM_TEST/RTC                         ----- -----  ----- -----  ----- -----
  +--> _ALARM_TIMEOUT_OPERA/RTC
LX51 LINKER/LOCATER V4.66.97.0                                                        04/10/2021  13:15:07  PAGE 17



_ALARM_TIMEOUT_OPERA/RTC                      ----- -----  ----- -----  ----- -----

ALARMED_TIME_TEST/RTC                         ----- -----  ----- -----  ----- -----

NOTHING_ACTION_TEST/BAT                       ----- -----  ----- -----  ----- -----
  +--> ENTER_LOW_SPEED_MODE/BAT

ALARM_TEST/RTC                                ----- -----  ----- -----  ----- -----
  +--> _ALARM_TIMEOUT_OPERA/RTC

TEST_5V_IN_LOWSPEED/BAT                       ----- -----  ----- -----  ----- -----
  +--> QUIT_LOW_SPEED_MODE/BAT

QUIT_LOW_SPEED_MODE/BAT                       ----- -----  ----- -----  ----- -----

?C_INITSEG                                    ----- -----  ----- -----  ----- -----

*** NEW ROOT ********************************

UART0_ISR/UART                                ----- -----  ----- -----  ----- -----

*** NEW ROOT ********************************

TIMER0_ISR/INTERRUPT                          ----- -----  ----- -----  ----- -----

*** NEW ROOT ********************************

TIMER1_ISR/INTERRUPT                          ----- -----  ----- -----  ----- -----
  +--> RING_CMD_ISR_HANDLER/RING

RING_CMD_ISR_HANDLER/RING                     ----- -----  ----- -----  ----- -----

*** NEW ROOT ********************************

RTC_ISR/INTERRUPT                             ----- -----  ----- -----  ----- -----



PUBLIC SYMBOLS OF MODULE:  .\output\F0790 (?C_STARTUP)


      VALUE       CLASS    TYPE      PUBLIC SYMBOL NAME
      =================================================
*DEL*:00000000H   XDATA    BYTE      ?_ADC_init?BYTE
      02000135H   XDATA    ---       ?_PRINTF?BYTE
      02000000H   XDATA    BYTE      ?_set_rtc?BYTE
      02000135H   XDATA    ---       ?_SPRINTF?BYTE
      02000001H   XDATA    BYTE      ?_uart_printf?BYTE
      0201012CH   XDATA    ---       ?_VSPRINTF?BYTE
      0100034AH   CODE     ---       ?C?CASTF
      01000989H   CODE     ---       ?C?CCASE
      010005E5H   CODE     ---       ?C?CILDOPTR
      010005C3H   CODE     ---       ?C?CILDPTR
      01000596H   CODE     ---       ?C?CLDOPTR
      0100057DH   CODE     ---       ?C?CLDPTR
      00000000H   NUMBER   ---       ?C?CODESEG
      0100062AH   CODE     ---       ?C?CSTOPTR
      01000618H   CODE     ---       ?C?CSTPTR
      01000316H   CODE     ---       ?C?FCASTC
      01000311H   CODE     ---       ?C?FCASTI
      0100030CH   CODE     ---       ?C?FCASTL
      01000075H   CODE     ---       ?C?FPADD
      01000408H   CODE     ---       ?C?FPCONVERT
      0100026FH   CODE     ---       ?C?FPDIV
LX51 LINKER/LOCATER V4.66.97.0                                                        04/10/2021  13:15:07  PAGE 18


      01000381H   CODE     ---       ?C?FPGETOPN2
      01000166H   CODE     ---       ?C?FPMUL
      010003B6H   CODE     ---       ?C?FPNANRESULT
      010003C0H   CODE     ---       ?C?FPOVERFLOW
      01000398H   CODE     ---       ?C?FPRESULT
      010003ACH   CODE     ---       ?C?FPRESULT2
      010003CBH   CODE     ---       ?C?FPROUND
      01000071H   CODE     ---       ?C?FPSUB
      010003BDH   CODE     ---       ?C?FPUNDERFLOW
      0100053DH   CODE     ---       ?C?FTNPWR
      01000742H   CODE     ---       ?C?IILDOPTR
      010006B3H   CODE     ---       ?C?IILDX
      010006C9H   CODE     ---       ?C?ILDIX
      0100070AH   CODE     ---       ?C?ILDOPTR
      010006DFH   CODE     ---       ?C?ILDPTR
      0100064CH   CODE     ---       ?C?IMUL
      010007AEH   CODE     ---       ?C?ISTOPTR
      0100078FH   CODE     ---       ?C?ISTPTR
      010007DBH   CODE     ---       ?C?LMUL
      010008F8H   CODE     ---       ?C?LNEG
      010009AFH   CODE     ---       ?C?LSTIDATA
      0100092CH   CODE     ---       ?C?LSTKXDATA
      010009BBH   CODE     ---       ?C?LSTPDATA
      01000906H   CODE     ---       ?C?LSTPTR
      01000920H   CODE     ---       ?C?LSTXDATA
      0100095DH   CODE     ---       ?C?OFFXADD
      01000969H   CODE     ---       ?C?PLDIXDATA
      01000980H   CODE     ---       ?C?PSTXDATA
      0100065EH   CODE     ---       ?C?UIDIV
      01000866H   CODE     ---       ?C?ULDIV
      00000000H   NUMBER   ---       ?C?XDATASEG
      010025CFH   CODE     ---       ?C_START
      01000000H   CODE     ---       ?C_STARTUP
      01000003H   CODE     ---       _ADC_ConfigChannel
*DEL*:00000000H   CODE     ---       _ADC_init
      01003883H   CODE     ---       _bl_brightness_set
      0100355DH   CODE     ---       _Delay_50us
      01003A77H   CODE     ---       _Delay_ms
      01001FB0H   CODE     ---       _get_adjust_AD_value
      010023DCH   CODE     ---       _get_current_switch_level
      01003B1DH   CODE     ---       _get_dvalue_u16
*DEL*:00000000H   CODE     ---       _get_dvalue_u8
      010038D8H   CODE     ---       _GetChannelAdcValue
      0100379AH   CODE     ---       _is_leap_year
      01002EF9H   CODE     ---       _is_over_max_days
      010030C9H   CODE     ---       _lcd_num_deal
      010022BDH   CODE     ---       _lcd_symbol_deal
      010039C7H   CODE     ---       _motor_enable
      01003AB4H   CODE     ---       _motor_start
      01000A32H   CODE     ---       _PRINTF
      0100397AH   CODE     ---       _PUTCHAR
*DEL*:00000000H   CODE     ---       _send_byte
      01003456H   CODE     ---       _send_ring_cmd
      010036F9H   CODE     ---       _set_max_days_of_month
      010017E9H   CODE     ---       _set_rtc
      010019C9H   CODE     ---       _show_hour_minute
      01000A2CH   CODE     ---       _SPRINTF
      010037F8H   CODE     ---       _Sys_Clk_Set_PLL
      01002D73H   CODE     ---       _Uart0_Initial
      01002A89H   CODE     ---       _Uart0_PutChar
      01002E9AH   CODE     ---       _uart_printf
      01003762H   CODE     ---       _UartPutStr
      01003269H   CODE     ---       _VSPRINTF
*SFR* 000000D0H.6 DATA     BIT       AC
*SFR* 000000E0H   DATA     BYTE      ACC
LX51 LINKER/LOCATER V4.66.97.0                                                        04/10/2021  13:15:07  PAGE 19


      0200808DH   XDATA    BYTE      ACPDHH
      0200808CH   XDATA    BYTE      ACPDHL
      0200808BH   XDATA    BYTE      ACPDLH
      0200808AH   XDATA    BYTE      ACPDLL
      020002B4H   XDATA    ---       AD_value_buffer
      01003C5FH   CODE     ---       ADC_StartConversion
      02008089H   XDATA    BYTE      ADCALH
      02008088H   XDATA    BYTE      ADCALL
*SFR* 000000BDH   DATA     BYTE      ADCDH
*SFR* 000000BCH   DATA     BYTE      ADCDL
*SFR* 000000BBH   DATA     BYTE      ADCFGH
*SFR* 000000BAH   DATA     BYTE      ADCFGL
*SFR* 000000B9H   DATA     BYTE      ADCON
      0200024BH   XDATA    BYTE      addr
      0200024AH   XDATA    BYTE      alarm_ring_cycle
      0200029AH   XDATA    BYTE      alarm_ring_step
      010026A0H   CODE     ---       alarm_shake
      02000304H   XDATA    BYTE      alarm_shake_cycle
      020002FEH   XDATA    BYTE      alarm_shake_seted_strength
      0200027CH   XDATA    BYTE      alarm_shake_step
      010018EDH   CODE     ---       alarm_test
      0100351DH   CODE     ---       alarm_tone
      0200029DH   XDATA    WORD      alarmed_time
      010035D7H   CODE     ---       alarmed_time_test
*SFR* 000000C6H   DATA     BYTE      ATKMH
*SFR* 000000C5H   DATA     BYTE      ATKML
      02008093H   XDATA    BYTE      ATKNH
      02008092H   XDATA    BYTE      ATKNL
*SFR* 000000F0H   DATA     BYTE      B
*SFR* 000000C0H.1 DATA     BIT       BAT_ADC_GPIO
      01003C10H   CODE     ---       bat_ADC_init
      010037C7H   CODE     ---       bat_vol_test
      01003C02H   CODE     ---       bl_close
*SFR* 000000D8H.4 DATA     BIT       BL_CTL
*SFR* 000000D8H.4 DATA     BIT       BL_CTL_GPIO
      01001B73H   CODE     ---       bl_handler
      01002A18H   CODE     ---       bl_init
      020002B0H   XDATA    WORD      bl_PWM_duty
      020002A5H   XDATA    BYTE      bl_pwm_mode
      01003828H   CODE     ---       bsp_GetKey
*DEL*:00000000H   CODE     ---       bsp_init
      0100359AH   CODE     ---       bsp_KeyScan10ms
*SFR* 000000C0H.0 DATA     BIT       busy
      02000291H   XDATA    ---       calendar
      02008080H   XDATA    BYTE      CKCON
      02008082H   XDATA    BYTE      CKDIV
*SFR* 000000BFH   DATA     BYTE      CKMIF
*SFR* 000000BEH   DATA     BYTE      CKMON
      02008081H   XDATA    BYTE      CKSEL
      01003C44H   CODE     ---       close_bat_adc
      01003C4AH   CODE     ---       close_key_ad
      01003BF3H   CODE     ---       close_switch_ADC_pin
      02008048H   XDATA    BYTE      CP0CON
      02008049H   XDATA    BYTE      CP1CON
      0200804AH   XDATA    BYTE      CP2CON
      0200804BH   XDATA    BYTE      CP3CON
      0200804CH   XDATA    BYTE      CPCKS
      0200804DH   XDATA    BYTE      CPSTA
      0200804EH   XDATA    BYTE      CPVTC
      0200805CH   XDATA    BYTE      CTMCNTH
      0200805BH   XDATA    BYTE      CTMCNTL
      02008058H   XDATA    BYTE      CTMCON
      0200805AH   XDATA    BYTE      CTMVTHH
      02008059H   XDATA    BYTE      CTMVTHL
*SFR* 000000D0H.7 DATA     BIT       CY
LX51 LINKER/LOCATER V4.66.97.0                                                        04/10/2021  13:15:07  PAGE 20


      01003C7EH   CONST    ---       day_of_month
*SFR* 000000C0H.2 DATA     BIT       DC_5V_GPIO
*SFR* 000000C0H.2 DATA     BIT       dc_5v_in
*SFR* 00000083H   DATA     BYTE      DP0H
*SFR* 00000082H   DATA     BYTE      DP0L
*SFR* 00000085H   DATA     BYTE      DP1H
*SFR* 00000084H   DATA     BYTE      DP1L
*SFR* 000000D0H.1 DATA     BIT       DPS
*SFR* 000000A8H.7 DATA     BIT       EA
      0100300FH   CODE     ---       enter_low_speed_mode
      01003343H   CODE     ---       enter_snooze
*SFR* 000000FBH   DATA     BYTE      EPCON
*SFR* 000000F9H   DATA     BYTE      EPIE
*SFR* 000000FAH   DATA     BYTE      EPIF
*SFR* 000000A8H.4 DATA     BIT       ES0
*SFR* 000000A8H.6 DATA     BIT       ES1
*SFR* 000000A8H.1 DATA     BIT       ET0
*SFR* 000000A8H.3 DATA     BIT       ET1
*SFR* 000000A8H.5 DATA     BIT       ET2
*SFR* 000000A8H.0 DATA     BIT       EX0
*SFR* 000000A8H.2 DATA     BIT       EX1
*SFR* 000000E8H   DATA     BYTE      EXIE
*SFR* 000000F8H   DATA     BYTE      EXIP
*SFR* 000000D0H.5 DATA     BIT       F0
      020002ECH   XDATA    BYTE      flag_100ms
      020002E3H   XDATA    BYTE      flag_10ms
      020002EDH   XDATA    BYTE      flag_200ms
      020002E4H   XDATA    BYTE      flag_20ms
      0200029BH   XDATA    BYTE      flag_24hours_en
      020002E0H   XDATA    BYTE      flag_2s
      020002E5H   XDATA    BYTE      flag_50ms
      0200029FH   XDATA    BYTE      flag_alarm1_en
      020002A0H   XDATA    BYTE      flag_alarm2_en
      02000280H   XDATA    BYTE      flag_alarm_style_ring
      0200027AH   XDATA    BYTE      flag_alarm_style_shake
      020002A1H   XDATA    BYTE      flag_alarm_timeout
      0200030EH   XDATA    BYTE      flag_clockdot_show
      02000299H   XDATA    BYTE      flag_current_alarmed
      0200029CH   XDATA    BYTE      flag_current_seting_alarm
      02000279H   XDATA    BYTE      flag_current_snooze
      020002F7H   XDATA    BYTE      flag_dc_5v
      0200027DH   XDATA    WORD      flag_enter_snooze
      0200027BH   XDATA    BYTE      flag_minute
      020002A2H   XDATA    BYTE      flag_second
      0200030DH   XDATA    BYTE      flag_set_flash_en
      0200FC01H   XDATA    BYTE      FSCMD
      0200FC02H   XDATA    BYTE      FSDAT
      02008051H   XDATA    BYTE      FT0SH
      02008050H   XDATA    BYTE      FT0SL
      02008053H   XDATA    BYTE      FT1SH
      02008052H   XDATA    BYTE      FT1SL
      02008055H   XDATA    BYTE      FT2SH
      02008054H   XDATA    BYTE      FT2SL
      02008057H   XDATA    BYTE      FT3SH
      02008056H   XDATA    BYTE      FT3SL
      0200811EH   XDATA    BYTE      FTCTL
      0200030BH   XDATA    WORD      g_9v_power_on_wait_time
      02000270H   XDATA    BYTE      g_alarm_ring_index
      020002D5H   XDATA    BYTE      g_before_alarm_mode_level
      020002D8H   XDATA    BYTE      g_before_motor_level
      02000276H   XDATA    BYTE      g_cmd
      020002D7H   XDATA    BYTE      g_current_alarm_mode_level
      020002DBH   XDATA    BYTE      g_current_motor_level
      02000249H   XDATA    BYTE      g_current_ring_vol_level
      020002D6H   XDATA    BYTE      g_led_alarm_enable
LX51 LINKER/LOCATER V4.66.97.0                                                        04/10/2021  13:15:07  PAGE 21


      020002E8H   XDATA    WORD      g_timer0_10ms_cnt
      020002DEH   XDATA    WORD      g_timer0_200ms_cnt
      020002EAH   XDATA    WORD      g_timer0_20ms_cnt
      020002E6H   XDATA    WORD      g_timer0_2s_cnt
      020002E1H   XDATA    WORD      g_timer0_5ms_cnt
      020002D4H   XDATA    BYTE      g_volume_and_mode_init_flg
      010015C4H   CODE     ---       get_calendar
      01001E60H   CODE     ---       get_volume_and_mode
*DEL*:00000000H   CODE     ---       GetAdcValue
      02008068H   XDATA    BYTE      HDCT0
      02008069H   XDATA    BYTE      HDCT1
      02008072H   XDATA    BYTE      HDCT10
      02008073H   XDATA    BYTE      HDCT11
      0200806AH   XDATA    BYTE      HDCT2
      0200806BH   XDATA    BYTE      HDCT3
      0200806CH   XDATA    BYTE      HDCT4
      0200806DH   XDATA    BYTE      HDCT5
      0200806EH   XDATA    BYTE      HDCT6
      0200806FH   XDATA    BYTE      HDCT7
      02008070H   XDATA    BYTE      HDCT8
      02008071H   XDATA    BYTE      HDCT9
*SFR* 000000AFH   DATA     BYTE      HVTH
*SFR* 000000B3H   DATA     BYTE      I2CADM
*SFR* 000000B2H   DATA     BYTE      I2CADR
*SFR* 000000B4H   DATA     BYTE      I2CCCR
*SFR* 000000B1H   DATA     BYTE      I2CCON
*SFR* 000000B5H   DATA     BYTE      I2CDAT
*SFR* 000000B7H   DATA     BYTE      I2CFLG
      02008101H   XDATA    BYTE      I2CIOS
*SFR* 000000B6H   DATA     BYTE      I2CSTA
*SFR* 000000FDH   DATA     BYTE      IDLSTH
*SFR* 000000FCH   DATA     BYTE      IDLSTL
*SFR* 000000A8H   DATA     BYTE      IE
*SFR* 00000088H.1 DATA     BIT       IE0
*SFR* 00000088H.3 DATA     BIT       IE1
      02008084H   XDATA    BYTE      IHCFGH
      02008083H   XDATA    BYTE      IHCFGL
      02008086H   XDATA    BYTE      ILCFGH
      02008085H   XDATA    BYTE      ILCFGL
*SFR* 000000F7H   DATA     BYTE      INDEX
*SFR* 000000E8H.0 DATA     BIT       INT2EN
*SFR* 000000E8H.1 DATA     BIT       INT3EN
*SFR* 000000E8H.2 DATA     BIT       INT4EN
*SFR* 000000E8H.3 DATA     BIT       INT5EN
*SFR* 000000E8H.4 DATA     BIT       INT6EN
*SFR* 000000E8H.5 DATA     BIT       INT7EN
*SFR* 000000E8H.6 DATA     BIT       INT8EN
*SFR* 000000E8H.7 DATA     BIT       INT9EN
*SFR* 000000B8H   DATA     BYTE      IP
*SFR* 000000C0H.0 DATA     BIT       is_busy
*SFR* 00000088H.0 DATA     BIT       IT0
*SFR* 0000008FH   DATA     BYTE      IT0CON
*SFR* 00000088H.2 DATA     BIT       IT1
*SFR* 0000008EH   DATA     BYTE      IT1CON
*SFR* 000000C0H.5 DATA     BIT       KEY_AD_GPIO
      01003BD5H   CODE     ---       key_ad_init
      02000315H   XDATA    BYTE      key_no_action_cnt
      02000319H   XDATA    BYTE      key_no_action_start
      01001F0AH   CODE     ---       key_no_action_test
      010028ACH   CODE     ---       key_process
      010032B3H   CODE     ---       lcd_clear
      01003A35H   CODE     ---       lcd_clock_9v_power_on_wait
      01003412H   CODE     ---       lcd_display
      010020EDH   CODE     ---       lcd_init
      02000309H   XDATA    BYTE      lcd_mode
LX51 LINKER/LOCATER V4.66.97.0                                                        04/10/2021  13:15:07  PAGE 22


      010032FBH   CODE     ---       lcd_show_all
      01003C2AH   CODE     ---       lcd_volume_adjust
      01003BC5H   CODE     ---       led_mod_detect
*SFR* 000000B0H.2 DATA     BIT       LED_SW_MOD_GPIO
      0200FC03H   XDATA    BYTE      LOCK
      020002F2H   XDATA    WORD      low_power_test_time
      01003B5DH   CODE     ---       low_vol_opera
      020002F9H   XDATA    BYTE      lowspeed
*SFR* 000000EFH   DATA     BYTE      LVDCON
      02008117H   XDATA    BYTE      LXCAD
*SFR* 000000E2H   DATA     BYTE      LXCFG
*SFR* 000000E1H   DATA     BYTE      LXCON
*SFR* 000000E3H   DATA     BYTE      LXDAT
*SFR* 000000E5H   DATA     BYTE      LXDIVH
*SFR* 000000E4H   DATA     BYTE      LXDIVL
      020002DCH   XDATA    ---       m_switch
      01001A9FH   CODE     ---       main
*SFR* 000000E6H   DATA     BYTE      MDUCON
*SFR* 000000E7H   DATA     BYTE      MDUDAT
      0200FC00H   XDATA    BYTE      MECON
      02008064H   XDATA    BYTE      MFPCON
      02008063H   XDATA    BYTE      MHLCON
*SFR* 000000C0H.7 DATA     BIT       MODE_SWITCH_ADC_GPIO
      02008061H   XDATA    BYTE      MOTCFG
      02008065H   XDATA    BYTE      MOTCMD
      02008060H   XDATA    BYTE      MOTCON
      02008067H   XDATA    BYTE      MOTIF
*SFR* 000000B0H.3 DATA     BIT       motor_a
*SFR* 000000B0H.7 DATA     BIT       motor_b
      020002FDH   XDATA    BYTE      motor_cycle
      020002FFH   XDATA    BYTE      motor_cycle_cnt
      01003A97H   CODE     ---       motor_disable
      00000021H.3 BIT      BIT       motor_en
      00000021H.1 BIT      BIT       motor_finish
      01003BE4H   CODE     ---       motor_init
      01003173H   CODE     ---       motor_pro
      00000021H.2 BIT      BIT       motor_state
      01003C5AH   CODE     ---       motor_stop
      020002FCH   XDATA    BYTE      motor_strength
*SFR* 000000C0H.6 DATA     BIT       MOTOR_SWITCH_ADC_GPIO
      02000303H   XDATA    BYTE      motor_time_cnt
      02008074H   XDATA    BYTE      MOTPLC
      02008062H   XDATA    BYTE      MTGCON
      02008066H   XDATA    BYTE      MTGDL
      02000248H   XDATA    BYTE      need_replay
      01003B71H   CODE     ---       no_use_io_init
      01003BB5H   CODE     ---       nothing_action_test
      01003C96H   CONST    ---       num_table
      02008040H   XDATA    BYTE      OPACON
      02008041H   XDATA    BYTE      OPBCON
      02008042H   XDATA    BYTE      OSTRIM
*SFR* 000000D0H.2 DATA     BIT       OV
*SFR* 000000D0H.0 DATA     BIT       P
*SFR* 00000080H   DATA     BYTE      P0
*SFR* 00000080H.0 DATA     BIT       P00
      02008120H   XDATA    BYTE      P00C
      02008000H   XDATA    BYTE      P00F
*SFR* 00000080H.1 DATA     BIT       P01
      02008121H   XDATA    BYTE      P01C
      02008001H   XDATA    BYTE      P01F
*SFR* 00000080H.2 DATA     BIT       P02
      02008122H   XDATA    BYTE      P02C
      02008002H   XDATA    BYTE      P02F
*SFR* 00000080H.3 DATA     BIT       P03
      02008123H   XDATA    BYTE      P03C
LX51 LINKER/LOCATER V4.66.97.0                                                        04/10/2021  13:15:07  PAGE 23


      02008003H   XDATA    BYTE      P03F
*SFR* 00000080H.4 DATA     BIT       P04
      02008124H   XDATA    BYTE      P04C
      02008004H   XDATA    BYTE      P04F
*SFR* 00000080H.5 DATA     BIT       P05
      02008125H   XDATA    BYTE      P05C
      02008005H   XDATA    BYTE      P05F
*SFR* 00000080H.6 DATA     BIT       P06
      02008126H   XDATA    BYTE      P06C
      02008006H   XDATA    BYTE      P06F
*SFR* 00000080H.7 DATA     BIT       P07
      02008127H   XDATA    BYTE      P07C
      02008007H   XDATA    BYTE      P07F
*SFR* 00000090H   DATA     BYTE      P1
*SFR* 00000090H.0 DATA     BIT       P10
      02008128H   XDATA    BYTE      P10C
      02008008H   XDATA    BYTE      P10F
*SFR* 00000090H.1 DATA     BIT       P11
      02008129H   XDATA    BYTE      P11C
      02008009H   XDATA    BYTE      P11F
*SFR* 00000090H.2 DATA     BIT       P12
      0200812AH   XDATA    BYTE      P12C
      0200800AH   XDATA    BYTE      P12F
*SFR* 00000090H.3 DATA     BIT       P13
      0200812BH   XDATA    BYTE      P13C
      0200800BH   XDATA    BYTE      P13F
*SFR* 00000090H.4 DATA     BIT       P14
      0200812CH   XDATA    BYTE      P14C
      0200800CH   XDATA    BYTE      P14F
*SFR* 00000090H.5 DATA     BIT       P15
      0200812DH   XDATA    BYTE      P15C
      0200800DH   XDATA    BYTE      P15F
*SFR* 00000090H.6 DATA     BIT       P16
      0200812EH   XDATA    BYTE      P16C
      0200800EH   XDATA    BYTE      P16F
*SFR* 00000090H.7 DATA     BIT       P17
      0200812FH   XDATA    BYTE      P17C
      0200800FH   XDATA    BYTE      P17F
*SFR* 000000A0H   DATA     BYTE      P2
*SFR* 000000A0H.0 DATA     BIT       P20
      02008130H   XDATA    BYTE      P20C
      02008010H   XDATA    BYTE      P20F
*SFR* 000000A0H.1 DATA     BIT       P21
      02008131H   XDATA    BYTE      P21C
      02008011H   XDATA    BYTE      P21F
*SFR* 000000A0H.2 DATA     BIT       P22
      02008132H   XDATA    BYTE      P22C
      02008012H   XDATA    BYTE      P22F
*SFR* 000000A0H.3 DATA     BIT       P23
      02008133H   XDATA    BYTE      P23C
      02008013H   XDATA    BYTE      P23F
*SFR* 000000A0H.4 DATA     BIT       P24
      02008134H   XDATA    BYTE      P24C
      02008014H   XDATA    BYTE      P24F
*SFR* 000000A0H.5 DATA     BIT       P25
      02008135H   XDATA    BYTE      P25C
      02008015H   XDATA    BYTE      P25F
*SFR* 000000A0H.6 DATA     BIT       P26
      02008136H   XDATA    BYTE      P26C
      02008016H   XDATA    BYTE      P26F
*SFR* 000000A0H.7 DATA     BIT       P27
      02008137H   XDATA    BYTE      P27C
      02008017H   XDATA    BYTE      P27F
*SFR* 000000B0H   DATA     BYTE      P3
*SFR* 000000B0H.0 DATA     BIT       P30
LX51 LINKER/LOCATER V4.66.97.0                                                        04/10/2021  13:15:07  PAGE 24


      02008138H   XDATA    BYTE      P30C
      02008018H   XDATA    BYTE      P30F
*SFR* 000000B0H.1 DATA     BIT       P31
      02008139H   XDATA    BYTE      P31C
      02008019H   XDATA    BYTE      P31F
*SFR* 000000B0H.2 DATA     BIT       P32
      0200813AH   XDATA    BYTE      P32C
      0200801AH   XDATA    BYTE      P32F
*SFR* 000000B0H.3 DATA     BIT       P33
      0200813BH   XDATA    BYTE      P33C
      0200801BH   XDATA    BYTE      P33F
*SFR* 000000B0H.4 DATA     BIT       P34
      0200813CH   XDATA    BYTE      P34C
      0200801CH   XDATA    BYTE      P34F
*SFR* 000000B0H.5 DATA     BIT       P35
      0200813DH   XDATA    BYTE      P35C
      0200801DH   XDATA    BYTE      P35F
*SFR* 000000B0H.6 DATA     BIT       P36
      0200813EH   XDATA    BYTE      P36C
      0200801EH   XDATA    BYTE      P36F
*SFR* 000000B0H.7 DATA     BIT       P37
      0200813FH   XDATA    BYTE      P37C
      0200801FH   XDATA    BYTE      P37F
*SFR* 000000C0H   DATA     BYTE      P4
*SFR* 000000C0H.0 DATA     BIT       P40
      02008140H   XDATA    BYTE      P40C
      02008020H   XDATA    BYTE      P40F
*SFR* 000000C0H.1 DATA     BIT       P41
      02008141H   XDATA    BYTE      P41C
      02008021H   XDATA    BYTE      P41F
*SFR* 000000C0H.2 DATA     BIT       P42
      02008142H   XDATA    BYTE      P42C
      02008022H   XDATA    BYTE      P42F
*SFR* 000000C0H.3 DATA     BIT       P43
      02008143H   XDATA    BYTE      P43C
      02008023H   XDATA    BYTE      P43F
*SFR* 000000C0H.4 DATA     BIT       P44
      02008144H   XDATA    BYTE      P44C
      02008024H   XDATA    BYTE      P44F
*SFR* 000000C0H.5 DATA     BIT       P45
      02008145H   XDATA    BYTE      P45C
      02008025H   XDATA    BYTE      P45F
*SFR* 000000C0H.6 DATA     BIT       P46
      02008146H   XDATA    BYTE      P46C
      02008026H   XDATA    BYTE      P46F
*SFR* 000000C0H.7 DATA     BIT       P47
      02008147H   XDATA    BYTE      P47C
      02008027H   XDATA    BYTE      P47F
*SFR* 000000D8H   DATA     BYTE      P5
*SFR* 000000D8H.0 DATA     BIT       P50
      02008148H   XDATA    BYTE      P50C
      02008028H   XDATA    BYTE      P50F
*SFR* 000000D8H.1 DATA     BIT       P51
      02008149H   XDATA    BYTE      P51C
      02008029H   XDATA    BYTE      P51F
*SFR* 000000D8H.2 DATA     BIT       P52
      0200814AH   XDATA    BYTE      P52C
      0200802AH   XDATA    BYTE      P52F
*SFR* 000000D8H.3 DATA     BIT       P53
      0200814BH   XDATA    BYTE      P53C
      0200802BH   XDATA    BYTE      P53F
*SFR* 000000D8H.4 DATA     BIT       P54
      0200814CH   XDATA    BYTE      P54C
      0200802CH   XDATA    BYTE      P54F
*SFR* 000000D8H.5 DATA     BIT       P55
LX51 LINKER/LOCATER V4.66.97.0                                                        04/10/2021  13:15:07  PAGE 25


      0200814DH   XDATA    BYTE      P55C
      0200802DH   XDATA    BYTE      P55F
*SFR* 000000D8H.6 DATA     BIT       P56
      0200814EH   XDATA    BYTE      P56C
      0200802EH   XDATA    BYTE      P56F
*SFR* 000000D8H.7 DATA     BIT       P57
      0200814FH   XDATA    BYTE      P57C
      0200802FH   XDATA    BYTE      P57F
*SFR* 000000A9H   DATA     BYTE      P6
      02008150H   XDATA    BYTE      P60C
      02008030H   XDATA    BYTE      P60F
      02008151H   XDATA    BYTE      P61C
      02008031H   XDATA    BYTE      P61F
      02008152H   XDATA    BYTE      P62C
      02008032H   XDATA    BYTE      P62F
      02008153H   XDATA    BYTE      P63C
      02008033H   XDATA    BYTE      P63F
      02008154H   XDATA    BYTE      P64C
      02008034H   XDATA    BYTE      P64F
      02008155H   XDATA    BYTE      P65C
      02008035H   XDATA    BYTE      P65F
      02008156H   XDATA    BYTE      P66C
      02008036H   XDATA    BYTE      P66F
      02008157H   XDATA    BYTE      P67C
      02008037H   XDATA    BYTE      P67F
*SFR* 000000D9H   DATA     BYTE      P7
      02008158H   XDATA    BYTE      P70C
      02008038H   XDATA    BYTE      P70F
      02008159H   XDATA    BYTE      P71C
      02008039H   XDATA    BYTE      P71F
      0200815AH   XDATA    BYTE      P72C
      0200803AH   XDATA    BYTE      P72F
      0200815BH   XDATA    BYTE      P73C
      0200803BH   XDATA    BYTE      P73F
      0200815CH   XDATA    BYTE      P74C
      0200803CH   XDATA    BYTE      P74F
      0200815DH   XDATA    BYTE      P75C
      0200803DH   XDATA    BYTE      P75F
      0200FC04H   XDATA    BYTE      PADRD
*SFR* 00000087H   DATA     BYTE      PCON
*SFR* 000000AEH   DATA     BYTE      PLLCON
*SFR* 000000B8H.4 DATA     BIT       PS0
*SFR* 000000B8H.6 DATA     BIT       PS1
*SFR* 000000D0H   DATA     BYTE      PSW
*SFR* 000000B8H.1 DATA     BIT       PT0
*SFR* 000000B8H.3 DATA     BIT       PT1
*SFR* 000000B8H.5 DATA     BIT       PT2
      0200FC06H   XDATA    BYTE      PTSH
      0200FC05H   XDATA    BYTE      PTSL
*SFR* 00000086H   DATA     BYTE      PWCON
*SFR* 000000D4H   DATA     BYTE      PWMAIF
*SFR* 000000D5H   DATA     BYTE      PWMBIF
*SFR* 000000DEH   DATA     BYTE      PWMCFG
*SFR* 000000D6H   DATA     BYTE      PWMCIF
*SFR* 000000DCH   DATA     BYTE      PWMCMAX
*SFR* 000000DDH   DATA     BYTE      PWMCON
*SFR* 000000D7H   DATA     BYTE      PWMDIF
*SFR* 000000D1H   DATA     BYTE      PWMDIVH
*SFR* 000000DFH   DATA     BYTE      PWMDIVL
*SFR* 000000D3H   DATA     BYTE      PWMDUTH
*SFR* 000000D2H   DATA     BYTE      PWMDUTL
*SFR* 000000DAH   DATA     BYTE      PWMEN
*SFR* 000000DBH   DATA     BYTE      PWMUPD
*SFR* 000000B8H.0 DATA     BIT       PX0
*SFR* 000000B8H.2 DATA     BIT       PX1
LX51 LINKER/LOCATER V4.66.97.0                                                        04/10/2021  13:15:07  PAGE 26


      01002E3AH   CODE     ---       quit_low_speed_mode
*SFR* 00000098H.2 DATA     BIT       RB8
*SFR* 00000091H   DATA     BYTE      RCCON
*SFR* 0000009FH   DATA     BYTE      RCMSHH
*SFR* 0000009EH   DATA     BYTE      RCMSHL
*SFR* 00000097H   DATA     BYTE      RCMSLH
*SFR* 00000096H   DATA     BYTE      RCMSLL
*SFR* 00000095H   DATA     BYTE      RCTAGH
*SFR* 00000094H   DATA     BYTE      RCTAGL
*SFR* 00000098H.4 DATA     BIT       REN
      0200FC07H   XDATA    BYTE      REPSET
*SFR* 00000098H.0 DATA     BIT       RI0
*DEL*:00000000H   CODE     ---       ring_amp_close
      01003AD1H   CODE     ---       ring_close
      01001C37H   CODE     ---       ring_cmd_isr_handler
      0200026FH   XDATA    BYTE      ring_gap_time
      01002D0CH   CODE     ---       ring_init
      01003AEBH   CODE     ---       ring_stop
      02000275H   XDATA    BYTE      ring_stop_flg
      0100246CH   CODE     ---       ring_vol_adjust_handler
*DEL*:00000000H   CODE     ---       ring_vol_printf
*SFR* 000000D0H.3 DATA     BIT       RS0
*SFR* 000000D0H.4 DATA     BIT       RS1
*SFR* 000000ECH   DATA     BYTE      RTAH
*SFR* 000000EBH   DATA     BYTE      RTAM
*SFR* 000000EAH   DATA     BYTE      RTAS
      02000281H   XDATA    ---       rtc_alarm
      010033CEH   CODE     ---       rtc_alarm_opera
      01003BA5H   CODE     ---       rtc_init
      01002FB4H   CODE     ---       rtc_isr
*SFR* 000000F6H   DATA     BYTE      RTCDH
*SFR* 000000F5H   DATA     BYTE      RTCDL
*SFR* 000000F4H   DATA     BYTE      RTCH
*SFR* 000000EEH   DATA     BYTE      RTCIF
*SFR* 000000F3H   DATA     BYTE      RTCM
*SFR* 000000F1H   DATA     BYTE      RTCON
*SFR* 000000F2H   DATA     BYTE      RTCS
*SFR* 000000E9H   DATA     BYTE      RTCSS
*SFR* 000000EDH   DATA     BYTE      RTMSS
*SFR* 00000099H   DATA     BYTE      S0BUF
*SFR* 00000098H   DATA     BYTE      S0CON
*SFR* 0000009BH   DATA     BYTE      S1BUF
*SFR* 0000009AH   DATA     BYTE      S1CON
*SFR* 0000009DH   DATA     BYTE      S1RELH
*SFR* 0000009CH   DATA     BYTE      S1RELL
*SFR* 000000A2H   DATA     BYTE      S2BUF
*SFR* 000000A1H   DATA     BYTE      S2CON
*SFR* 000000A4H   DATA     BYTE      S2RELH
*SFR* 000000A3H   DATA     BYTE      S2RELL
      0200026EH   XDATA    BYTE      send_once_flg
      02000274H   XDATA    BYTE      send_ring_cmd_step
      02000307H   XDATA    BYTE      set_location
      02000308H   XDATA    BYTE      set_no_flash_gap
      02000300H   XDATA    ---       shake_strength
      01003856H   CODE     ---       show_12_24hours
      0200030AH   XDATA    BYTE      show_in_bat_5sec
      010029A2H   CODE     ---       show_year
      02000271H   XDATA    BYTE      sig_cnt
*SFR* 00000098H.7 DATA     BIT       SM0
*SFR* 00000098H.6 DATA     BIT       SM1
*SFR* 00000098H.5 DATA     BIT       SM2
      02008078H   XDATA    BYTE      SMCON
      0200807CH   XDATA    BYTE      SMDATH
      0200807BH   XDATA    BYTE      SMDATL
      0200807AH   XDATA    BYTE      SMDIV
LX51 LINKER/LOCATER V4.66.97.0                                                        04/10/2021  13:15:07  PAGE 27


      02008079H   XDATA    BYTE      SMSTA
      0200807EH   XDATA    BYTE      SMVTHH
      0200807DH   XDATA    BYTE      SMVTHL
      01003901H   CODE     ---       snooze_alarm_test
      0200027FH   XDATA    BYTE      snooze_time
*SFR* 00000081H   DATA     BYTE      SP
*SFR* 000000A5H   DATA     BYTE      SPCON
*SFR* 000000A6H   DATA     BYTE      SPDAT
      02000246H   XDATA    BYTE      spk_cmd_ing
      02008100H   XDATA    BYTE      SPMAX
*SFR* 000000A7H   DATA     BYTE      SPSTA
*SFR* 000000FFH   DATA     BYTE      STPSTH
*SFR* 000000FEH   DATA     BYTE      STPSTL
      020002D9H   XDATA    ---       switch_ADC_ch_table
      01003B94H   CODE     ---       switch_ADC_init
      01003C3DH   CODE     ---       switch_led_mod_init
      020002C8H   XDATA    ---       switch_level_buf
*DEL*:00000000H   CODE     ---       Sys_Clk_Set_IRCH
*DEL*:00000000H   CODE     ---       Sys_Clk_Set_IRCL
*DEL*:00000000H   CODE     ---       Sys_Clk_Set_TFRC
*DEL*:00000000H   CODE     ---       Sys_Clk_Set_XOSCL
*SFR* 000000CBH   DATA     BYTE      T2CH
*SFR* 000000CAH   DATA     BYTE      T2CL
*SFR* 000000C8H   DATA     BYTE      T2CON
*SFR* 000000C8H.3 DATA     BIT       T2IE
*SFR* 000000C9H   DATA     BYTE      T2MOD
*SFR* 000000C8H.0 DATA     BIT       T2P0
*SFR* 000000C8H.1 DATA     BIT       T2P1
*SFR* 000000C8H.4 DATA     BIT       T2R0
*SFR* 000000C8H.5 DATA     BIT       T2R1
      01003C8AH   CONST    ---       table_week
*SFR* 00000098H.3 DATA     BIT       TB8
*SFR* 00000088H   DATA     BYTE      TCON
*DEL*:00000000H   CODE     ---       test_5v_config_ADC_in
*DEL*:00000000H   CODE     ---       test_5v_config_io_in
      01002F57H   CODE     ---       test_5v_in
      01003B05H   CODE     ---       test_5v_in_lowspeed
      01003C36H   CODE     ---       test_5v_init
      02000316H   XDATA    BYTE      test_key_num
      02000318H   XDATA    BYTE      test_step
*SFR* 00000088H.5 DATA     BIT       TF0
*SFR* 00000088H.7 DATA     BIT       TF1
*SFR* 000000C8H.7 DATA     BIT       TF2
      02008087H   XDATA    BYTE      TFCFG
*SFR* 0000008CH   DATA     BYTE      TH0
*SFR* 0000008DH   DATA     BYTE      TH1
*SFR* 000000CDH   DATA     BYTE      TH2
*SFR* 00000098H.1 DATA     BIT       TI0
      020002F6H   XDATA    BYTE      time_to_enter_lowspeed
      010014A4H   CODE     ---       timer0_isr
      0100364FH   CODE     ---       timer1_isr
      01003B48H   CODE     ---       timer_init
*SFR* 000000C2H   DATA     BYTE      TKCFG
*SFR* 000000C4H   DATA     BYTE      TKCHS
*SFR* 000000C1H   DATA     BYTE      TKCON
*SFR* 000000C7H   DATA     BYTE      TKIF
      02008090H   XDATA    BYTE      TKMAXF
      02008091H   XDATA    BYTE      TKMINF
*SFR* 000000CFH   DATA     BYTE      TKMSH
*SFR* 000000CEH   DATA     BYTE      TKMSL
*SFR* 000000C3H   DATA     BYTE      TKMTS
      02008103H   XDATA    BYTE      TKPWC
*SFR* 0000008AH   DATA     BYTE      TL0
*SFR* 0000008BH   DATA     BYTE      TL1
*SFR* 000000CCH   DATA     BYTE      TL2
LX51 LINKER/LOCATER V4.66.97.0                                                        04/10/2021  13:15:07  PAGE 28


      0200810AH   XDATA    BYTE      TLCKS
      0200810FH   XDATA    BYTE      TLCNTD
      0200810CH   XDATA    BYTE      TLCNTKH
      0200810BH   XDATA    BYTE      TLCNTKL
      0200810EH   XDATA    BYTE      TLCNTLH
      0200810DH   XDATA    BYTE      TLCNTLL
      02008110H   XDATA    BYTE      TLCOMS
      02008108H   XDATA    BYTE      TLCON
      02008107H   XDATA    BYTE      TLDAT
      02008106H   XDATA    BYTE      TLEN
      02008109H   XDATA    BYTE      TLFLG
*SFR* 00000089H   DATA     BYTE      TMOD
      0200811FH   XDATA    BYTE      TPCTL
*SFR* 00000088H.4 DATA     BIT       TR0
*SFR* 00000088H.6 DATA     BIT       TR1
*SFR* 000000C8H.6 DATA     BIT       TR2
*DEL*:00000000H   CODE     ---       turn_on_tone
      01002CA2H   CODE     ---       UART0_ISR
      02000165H   XDATA    ---       uart0_rev
      02000167H   XDATA    ---       uart0_rx_buf
      020001DFH   XDATA    ---       uart0_send
      020001CBH   XDATA    ---       uart0_tx_buf
      00000021H.4 BIT      BIT       uart0_tx_flag
      020001E1H   XDATA    BYTE      ucKeyCode
*SFR* 000000C8H.2 DATA     BIT       UCKS
      010038AEH   CODE     ---       updata_calendar
*SFR* 00000093H   DATA     BYTE      VCKDH
*SFR* 00000092H   DATA     BYTE      VCKDL
*SFR* 000000AAH   DATA     BYTE      WDCON
*SFR* 000000ABH   DATA     BYTE      WDFLG
*SFR* 000000ADH   DATA     BYTE      WDVTHH
*SFR* 000000ACH   DATA     BYTE      WDVTHL



SYMBOL TABLE OF MODULE:  .\output\F0790 (?C_STARTUP)

      VALUE       REP       CLASS    TYPE      SYMBOL NAME
      ====================================================
      ---         MODULE    ---      ---       ?C_STARTUP
      01000000H   PUBLIC    CODE     ---       ?C_STARTUP
      000000E0H   SYMBOL    DATA     ---       ACC
      000000F0H   SYMBOL    DATA     ---       B
      00000083H   SYMBOL    DATA     ---       DPH
      00000082H   SYMBOL    DATA     ---       DPL
      00000000H   SYMBOL    NUMBER   ---       IBPSTACK
      00000100H   SYMBOL    NUMBER   ---       IBPSTACKTOP
      00000080H   SYMBOL    NUMBER   ---       IDATALEN
      0100258BH   SYMBOL    CODE     ---       IDATALOOP
      00000000H   SYMBOL    NUMBER   ---       PBPSTACK
      00000100H   SYMBOL    NUMBER   ---       PBPSTACKTOP
      00000000H   SYMBOL    NUMBER   ---       PDATALEN
      00000000H   SYMBOL    NUMBER   ---       PDATASTART
      00000000H   SYMBOL    NUMBER   ---       PPAGE
      00000000H   SYMBOL    NUMBER   ---       PPAGEENABLE
      000000A0H   SYMBOL    DATA     ---       PPAGE_SFR
      00000081H   SYMBOL    DATA     ---       SP
      01002588H   SYMBOL    CODE     ---       STARTUP1
      00000000H   SYMBOL    NUMBER   ---       XBPSTACK
      00000000H   SYMBOL    NUMBER   ---       XBPSTACKTOP
      00000000H   SYMBOL    NUMBER   ---       XDATALEN
      00000000H   SYMBOL    NUMBER   ---       XDATASTART
      01000000H   LINE      CODE     ---       #126
      01002588H   LINE      CODE     ---       #133
      0100258AH   LINE      CODE     ---       #134
LX51 LINKER/LOCATER V4.66.97.0                                                        04/10/2021  13:15:07  PAGE 29


      0100258BH   LINE      CODE     ---       #135
      0100258CH   LINE      CODE     ---       #136
      0100258EH   LINE      CODE     ---       #185
      01002591H   LINE      CODE     ---       #196

      ---         MODULE    ---      ---       APP
      000000E3H   SFRSYM    DATA     BYTE      LXDAT
      000000C4H   SFRSYM    DATA     BYTE      TKCHS
      00000080H   SFRSYM    DATA     BYTE      P0
      000000C1H   SFRSYM    DATA     BYTE      TKCON
      00000090H   SFRSYM    DATA     BYTE      P1
      000000A0H   SFRSYM    DATA     BYTE      P2
      000000C0H.6 SFRSYM    DATA     BIT       MOTOR_SWITCH_ADC_GPIO
      000000C0H.0 SFRSYM    DATA     BIT       is_busy
      000000B0H   SFRSYM    DATA     BYTE      P3
      000000C0H.2 SFRSYM    DATA     BIT       DC_5V_GPIO
      000000D0H.6 SFRSYM    DATA     BIT       AC
      000000C0H   SFRSYM    DATA     BYTE      P4
      000000D8H   SFRSYM    DATA     BYTE      P5
      000000A5H   SFRSYM    DATA     BYTE      SPCON
      000000A8H.7 SFRSYM    DATA     BIT       EA
      000000E1H   SFRSYM    DATA     BYTE      LXCON
      000000A9H   SFRSYM    DATA     BYTE      P6
      000000C8H.0 SFRSYM    DATA     BIT       T2P0
      000000D9H   SFRSYM    DATA     BYTE      P7
      000000C8H.1 SFRSYM    DATA     BIT       T2P1
      000000F1H   SFRSYM    DATA     BYTE      RTCON
      000000C8H.4 SFRSYM    DATA     BIT       T2R0
      000000DAH   SFRSYM    DATA     BYTE      PWMEN
      000000CFH   SFRSYM    DATA     BYTE      TKMSH
      00000086H   SFRSYM    DATA     BYTE      PWCON
      000000C8H.5 SFRSYM    DATA     BIT       T2R1
      000000C0H.2 SFRSYM    DATA     BIT       dc_5v_in
      000000CEH   SFRSYM    DATA     BYTE      TKMSL
      000000A7H   SFRSYM    DATA     BYTE      SPSTA
      00000083H   SFRSYM    DATA     BYTE      DP0H
      000000A8H   SFRSYM    DATA     BYTE      IE
      00000085H   SFRSYM    DATA     BYTE      DP1H
      000000E9H   SFRSYM    DATA     BYTE      RTCSS
      00000082H   SFRSYM    DATA     BYTE      DP0L
      000000C0H.1 SFRSYM    DATA     BIT       BAT_ADC_GPIO
      000000CBH   SFRSYM    DATA     BYTE      T2CH
      000000B3H   SFRSYM    DATA     BYTE      I2CADM
      00000084H   SFRSYM    DATA     BYTE      DP1L
      000000C8H.3 SFRSYM    DATA     BIT       T2IE
      000000C3H   SFRSYM    DATA     BYTE      TKMTS
      000000C0H.7 SFRSYM    DATA     BIT       MODE_SWITCH_ADC_GPIO
      000000CAH   SFRSYM    DATA     BYTE      T2CL
      000000B2H   SFRSYM    DATA     BYTE      I2CADR
      000000B4H   SFRSYM    DATA     BYTE      I2CCCR
      000000B8H   SFRSYM    DATA     BYTE      IP
      000000B7H   SFRSYM    DATA     BYTE      I2CFLG
      000000B5H   SFRSYM    DATA     BYTE      I2CDAT
      000000EDH   SFRSYM    DATA     BYTE      RTMSS
      000000D0H.7 SFRSYM    DATA     BIT       CY
      000000BBH   SFRSYM    DATA     BYTE      ADCFGH
      000000DCH   SFRSYM    DATA     BYTE      PWMCMAX
      000000B1H   SFRSYM    DATA     BYTE      I2CCON
      000000D1H   SFRSYM    DATA     BYTE      PWMDIVH
      000000BAH   SFRSYM    DATA     BYTE      ADCFGL
      00000081H   SFRSYM    DATA     BYTE      SP
      000000F9H   SFRSYM    DATA     BYTE      EPIE
      000000D0H.2 SFRSYM    DATA     BIT       OV
      000000FAH   SFRSYM    DATA     BYTE      EPIF
      000000DFH   SFRSYM    DATA     BYTE      PWMDIVL
LX51 LINKER/LOCATER V4.66.97.0                                                        04/10/2021  13:15:07  PAGE 30


      000000B6H   SFRSYM    DATA     BYTE      I2CSTA
      000000E8H   SFRSYM    DATA     BYTE      EXIE
      000000D3H   SFRSYM    DATA     BYTE      PWMDUTH
      000000C7H   SFRSYM    DATA     BYTE      TKIF
      0000008FH   SFRSYM    DATA     BYTE      IT0CON
      00000080H.0 SFRSYM    DATA     BIT       P00
      000000ECH   SFRSYM    DATA     BYTE      RTAH
      000000D2H   SFRSYM    DATA     BYTE      PWMDUTL
      0000008EH   SFRSYM    DATA     BYTE      IT1CON
      00000090H.0 SFRSYM    DATA     BIT       P10
      00000080H.1 SFRSYM    DATA     BIT       P01
      0000009DH   SFRSYM    DATA     BYTE      S1RELH
      00000087H   SFRSYM    DATA     BYTE      PCON
      000000A0H.0 SFRSYM    DATA     BIT       P20
      00000090H.1 SFRSYM    DATA     BIT       P11
      00000080H.2 SFRSYM    DATA     BIT       P02
      000000E8H.0 SFRSYM    DATA     BIT       INT2EN
      000000F4H   SFRSYM    DATA     BYTE      RTCH
      000000A4H   SFRSYM    DATA     BYTE      S2RELH
      000000B0H.2 SFRSYM    DATA     BIT       LED_SW_MOD_GPIO
      000000B0H.0 SFRSYM    DATA     BIT       P30
      000000A0H.1 SFRSYM    DATA     BIT       P21
      00000090H.2 SFRSYM    DATA     BIT       P12
      00000080H.3 SFRSYM    DATA     BIT       P03
      000000E8H.1 SFRSYM    DATA     BIT       INT3EN
      000000C0H.0 SFRSYM    DATA     BIT       P40
      000000B0H.1 SFRSYM    DATA     BIT       P31
      000000A0H.2 SFRSYM    DATA     BIT       P22
      00000090H.3 SFRSYM    DATA     BIT       P13
      00000080H.4 SFRSYM    DATA     BIT       P04
      000000E8H.2 SFRSYM    DATA     BIT       INT4EN
      000000D8H.0 SFRSYM    DATA     BIT       P50
      000000C0H.1 SFRSYM    DATA     BIT       P41
      000000B0H.2 SFRSYM    DATA     BIT       P32
      000000A0H.3 SFRSYM    DATA     BIT       P23
      00000090H.4 SFRSYM    DATA     BIT       P14
      00000080H.5 SFRSYM    DATA     BIT       P05
      000000E8H.3 SFRSYM    DATA     BIT       INT5EN
      000000EBH   SFRSYM    DATA     BYTE      RTAM
      0000009CH   SFRSYM    DATA     BYTE      S1RELL
      00000089H   SFRSYM    DATA     BYTE      TMOD
      00000088H   SFRSYM    DATA     BYTE      TCON
      000000D8H.1 SFRSYM    DATA     BIT       P51
      000000C0H.2 SFRSYM    DATA     BIT       P42
      000000B0H.3 SFRSYM    DATA     BIT       P33
      000000A0H.4 SFRSYM    DATA     BIT       P24
      00000090H.5 SFRSYM    DATA     BIT       P15
      00000080H.6 SFRSYM    DATA     BIT       P06
      000000E8H.4 SFRSYM    DATA     BIT       INT6EN
      000000A3H   SFRSYM    DATA     BYTE      S2RELL
      000000D8H.2 SFRSYM    DATA     BIT       P52
      000000C0H.3 SFRSYM    DATA     BIT       P43
      000000B0H.4 SFRSYM    DATA     BIT       P34
      000000A0H.5 SFRSYM    DATA     BIT       P25
      00000090H.6 SFRSYM    DATA     BIT       P16
      00000080H.7 SFRSYM    DATA     BIT       P07
      000000E8H.5 SFRSYM    DATA     BIT       INT7EN
      000000C8H.2 SFRSYM    DATA     BIT       UCKS
      000000F8H   SFRSYM    DATA     BYTE      EXIP
      000000F3H   SFRSYM    DATA     BYTE      RTCM
      000000D8H.3 SFRSYM    DATA     BIT       P53
      000000C0H.4 SFRSYM    DATA     BIT       P44
      000000B0H.5 SFRSYM    DATA     BIT       P35
      000000A0H.6 SFRSYM    DATA     BIT       P26
      00000090H.7 SFRSYM    DATA     BIT       P17
LX51 LINKER/LOCATER V4.66.97.0                                                        04/10/2021  13:15:07  PAGE 31


      000000E8H.6 SFRSYM    DATA     BIT       INT8EN
      000000D8H.4 SFRSYM    DATA     BIT       P54
      000000C0H.5 SFRSYM    DATA     BIT       P45
      000000B0H.6 SFRSYM    DATA     BIT       P36
      000000A0H.7 SFRSYM    DATA     BIT       P27
      000000E8H.7 SFRSYM    DATA     BIT       INT9EN
      000000D8H.5 SFRSYM    DATA     BIT       P55
      000000C0H.6 SFRSYM    DATA     BIT       P46
      000000B0H.7 SFRSYM    DATA     BIT       P37
      000000D8H.6 SFRSYM    DATA     BIT       P56
      000000C0H.7 SFRSYM    DATA     BIT       P47
      000000EAH   SFRSYM    DATA     BYTE      RTAS
      000000AFH   SFRSYM    DATA     BYTE      HVTH
      00000095H   SFRSYM    DATA     BYTE      RCTAGH
      000000D8H.7 SFRSYM    DATA     BIT       P57
      000000F2H   SFRSYM    DATA     BYTE      RTCS
      00000088H.1 SFRSYM    DATA     BIT       IE0
      00000088H.3 SFRSYM    DATA     BIT       IE1
      00000094H   SFRSYM    DATA     BYTE      RCTAGL
      000000F0H   SFRSYM    DATA     BYTE      B
      000000E7H   SFRSYM    DATA     BYTE      MDUDAT
      000000C0H.0 SFRSYM    DATA     BIT       busy
      000000DEH   SFRSYM    DATA     BYTE      PWMCFG
      000000D4H   SFRSYM    DATA     BYTE      PWMAIF
      000000E0H   SFRSYM    DATA     BYTE      ACC
      000000D5H   SFRSYM    DATA     BYTE      PWMBIF
      0000009FH   SFRSYM    DATA     BYTE      RCMSHH
      000000A8H.4 SFRSYM    DATA     BIT       ES0
      000000EFH   SFRSYM    DATA     BYTE      LVDCON
      000000E6H   SFRSYM    DATA     BYTE      MDUCON
      000000D6H   SFRSYM    DATA     BYTE      PWMCIF
      000000A8H.1 SFRSYM    DATA     BIT       ET0
      000000A8H.6 SFRSYM    DATA     BIT       ES1
      000000D7H   SFRSYM    DATA     BYTE      PWMDIF
      000000A8H.3 SFRSYM    DATA     BIT       ET1
      00000088H.5 SFRSYM    DATA     BIT       TF0
      000000FDH   SFRSYM    DATA     BYTE      IDLSTH
      000000AEH   SFRSYM    DATA     BYTE      PLLCON
      000000A8H.5 SFRSYM    DATA     BIT       ET2
      00000098H.0 SFRSYM    DATA     BIT       RI0
      00000088H.7 SFRSYM    DATA     BIT       TF1
      0000009EH   SFRSYM    DATA     BYTE      RCMSHL
      00000097H   SFRSYM    DATA     BYTE      RCMSLH
      000000C8H.7 SFRSYM    DATA     BIT       TF2
      00000098H.2 SFRSYM    DATA     BIT       RB8
      0000008CH   SFRSYM    DATA     BYTE      TH0
      000000A8H.0 SFRSYM    DATA     BIT       EX0
      00000098H.1 SFRSYM    DATA     BIT       TI0
      00000088H.0 SFRSYM    DATA     BIT       IT0
      0000008DH   SFRSYM    DATA     BYTE      TH1
      000000A8H.2 SFRSYM    DATA     BIT       EX1
      00000098H.3 SFRSYM    DATA     BIT       TB8
      00000088H.2 SFRSYM    DATA     BIT       IT1
      000000FCH   SFRSYM    DATA     BYTE      IDLSTL
      000000CDH   SFRSYM    DATA     BYTE      TH2
      000000D0H.0 SFRSYM    DATA     BIT       P
      00000096H   SFRSYM    DATA     BYTE      RCMSLL
      00000098H.7 SFRSYM    DATA     BIT       SM0
      0000008AH   SFRSYM    DATA     BYTE      TL0
      00000098H.6 SFRSYM    DATA     BIT       SM1
      000000E5H   SFRSYM    DATA     BYTE      LXDIVH
      0000008BH   SFRSYM    DATA     BYTE      TL1
      000000D8H.4 SFRSYM    DATA     BIT       BL_CTL
      00000098H.5 SFRSYM    DATA     BIT       SM2
      000000CCH   SFRSYM    DATA     BYTE      TL2
LX51 LINKER/LOCATER V4.66.97.0                                                        04/10/2021  13:15:07  PAGE 32


      000000B8H.4 SFRSYM    DATA     BIT       PS0
      000000B8H.1 SFRSYM    DATA     BIT       PT0
      000000B8H.6 SFRSYM    DATA     BIT       PS1
      000000B8H.3 SFRSYM    DATA     BIT       PT1
      000000D0H.3 SFRSYM    DATA     BIT       RS0
      000000E4H   SFRSYM    DATA     BYTE      LXDIVL
      000000BDH   SFRSYM    DATA     BYTE      ADCDH
      000000B8H.5 SFRSYM    DATA     BIT       PT2
      00000088H.4 SFRSYM    DATA     BIT       TR0
      000000D0H.4 SFRSYM    DATA     BIT       RS1
      000000DDH   SFRSYM    DATA     BYTE      PWMCON
      00000088H.6 SFRSYM    DATA     BIT       TR1
      000000ADH   SFRSYM    DATA     BYTE      WDVTHH
      000000C8H.6 SFRSYM    DATA     BIT       TR2
      000000B8H.0 SFRSYM    DATA     BIT       PX0
      000000B8H.2 SFRSYM    DATA     BIT       PX1
      000000BCH   SFRSYM    DATA     BYTE      ADCDL
      000000ACH   SFRSYM    DATA     BYTE      WDVTHL
      000000DBH   SFRSYM    DATA     BYTE      PWMUPD
      000000C0H.5 SFRSYM    DATA     BIT       KEY_AD_GPIO
      00000099H   SFRSYM    DATA     BYTE      S0BUF
      0000009BH   SFRSYM    DATA     BYTE      S1BUF
      000000D8H.4 SFRSYM    DATA     BIT       BL_CTL_GPIO
      000000A2H   SFRSYM    DATA     BYTE      S2BUF
      00000098H   SFRSYM    DATA     BYTE      S0CON
      00000098H.4 SFRSYM    DATA     BIT       REN
      0000009AH   SFRSYM    DATA     BYTE      S1CON
      000000B9H   SFRSYM    DATA     BYTE      ADCON
      000000A1H   SFRSYM    DATA     BYTE      S2CON
      000000D0H.1 SFRSYM    DATA     BIT       DPS
      000000C9H   SFRSYM    DATA     BYTE      T2MOD
      000000C8H   SFRSYM    DATA     BYTE      T2CON
      000000FFH   SFRSYM    DATA     BYTE      STPSTH
      000000BFH   SFRSYM    DATA     BYTE      CKMIF
      000000FEH   SFRSYM    DATA     BYTE      STPSTL
      000000C2H   SFRSYM    DATA     BYTE      TKCFG
      00000093H   SFRSYM    DATA     BYTE      VCKDH
      000000B0H.3 SFRSYM    DATA     BIT       motor_a
      000000D0H.5 SFRSYM    DATA     BIT       F0
      000000E2H   SFRSYM    DATA     BYTE      LXCFG
      000000ABH   SFRSYM    DATA     BYTE      WDFLG
      00000092H   SFRSYM    DATA     BYTE      VCKDL
      000000B0H.7 SFRSYM    DATA     BIT       motor_b
      000000FBH   SFRSYM    DATA     BYTE      EPCON
      000000F6H   SFRSYM    DATA     BYTE      RTCDH
      000000C6H   SFRSYM    DATA     BYTE      ATKMH
      00000091H   SFRSYM    DATA     BYTE      RCCON
      000000F7H   SFRSYM    DATA     BYTE      INDEX
      000000EEH   SFRSYM    DATA     BYTE      RTCIF
      000000BEH   SFRSYM    DATA     BYTE      CKMON
      000000F5H   SFRSYM    DATA     BYTE      RTCDL
      000000D0H   SFRSYM    DATA     BYTE      PSW
      000000C5H   SFRSYM    DATA     BYTE      ATKML
      000000AAH   SFRSYM    DATA     BYTE      WDCON
      000000A6H   SFRSYM    DATA     BYTE      SPDAT

      ---         MODULE    ---      ---       KEY_APP
      02000319H   PUBLIC    XDATA    BYTE      key_no_action_start
      02000318H   PUBLIC    XDATA    BYTE      test_step
      02000316H   PUBLIC    XDATA    BYTE      test_key_num
      02000315H   PUBLIC    XDATA    BYTE      key_no_action_cnt
      01001F0AH   PUBLIC    CODE     ---       key_no_action_test
      010028ACH   PUBLIC    CODE     ---       key_process
      000000E3H   SFRSYM    DATA     BYTE      LXDAT
      000000C4H   SFRSYM    DATA     BYTE      TKCHS
LX51 LINKER/LOCATER V4.66.97.0                                                        04/10/2021  13:15:07  PAGE 33


      00000080H   SFRSYM    DATA     BYTE      P0
      000000C1H   SFRSYM    DATA     BYTE      TKCON
      00000090H   SFRSYM    DATA     BYTE      P1
      000000A0H   SFRSYM    DATA     BYTE      P2
      000000C0H.6 SFRSYM    DATA     BIT       MOTOR_SWITCH_ADC_GPIO
      000000C0H.0 SFRSYM    DATA     BIT       is_busy
      000000B0H   SFRSYM    DATA     BYTE      P3
      000000C0H.2 SFRSYM    DATA     BIT       DC_5V_GPIO
      000000D0H.6 SFRSYM    DATA     BIT       AC
      000000C0H   SFRSYM    DATA     BYTE      P4
      000000D8H   SFRSYM    DATA     BYTE      P5
      000000A5H   SFRSYM    DATA     BYTE      SPCON
      000000A8H.7 SFRSYM    DATA     BIT       EA
      000000E1H   SFRSYM    DATA     BYTE      LXCON
      000000A9H   SFRSYM    DATA     BYTE      P6
      000000C8H.0 SFRSYM    DATA     BIT       T2P0
      000000D9H   SFRSYM    DATA     BYTE      P7
      000000C8H.1 SFRSYM    DATA     BIT       T2P1
      000000F1H   SFRSYM    DATA     BYTE      RTCON
      000000C8H.4 SFRSYM    DATA     BIT       T2R0
      000000DAH   SFRSYM    DATA     BYTE      PWMEN
      000000CFH   SFRSYM    DATA     BYTE      TKMSH
      00000086H   SFRSYM    DATA     BYTE      PWCON
      000000C8H.5 SFRSYM    DATA     BIT       T2R1
      000000C0H.2 SFRSYM    DATA     BIT       dc_5v_in
      000000CEH   SFRSYM    DATA     BYTE      TKMSL
      000000A7H   SFRSYM    DATA     BYTE      SPSTA
      00000083H   SFRSYM    DATA     BYTE      DP0H
      000000A8H   SFRSYM    DATA     BYTE      IE
      00000085H   SFRSYM    DATA     BYTE      DP1H
      000000E9H   SFRSYM    DATA     BYTE      RTCSS
      00000082H   SFRSYM    DATA     BYTE      DP0L
      000000C0H.1 SFRSYM    DATA     BIT       BAT_ADC_GPIO
      000000CBH   SFRSYM    DATA     BYTE      T2CH
      000000B3H   SFRSYM    DATA     BYTE      I2CADM
      00000084H   SFRSYM    DATA     BYTE      DP1L
      000000C8H.3 SFRSYM    DATA     BIT       T2IE
      000000C3H   SFRSYM    DATA     BYTE      TKMTS
      000000C0H.7 SFRSYM    DATA     BIT       MODE_SWITCH_ADC_GPIO
      000000CAH   SFRSYM    DATA     BYTE      T2CL
      000000B2H   SFRSYM    DATA     BYTE      I2CADR
      000000B4H   SFRSYM    DATA     BYTE      I2CCCR
      000000B8H   SFRSYM    DATA     BYTE      IP
      000000B7H   SFRSYM    DATA     BYTE      I2CFLG
      000000B5H   SFRSYM    DATA     BYTE      I2CDAT
      000000EDH   SFRSYM    DATA     BYTE      RTMSS
      000000D0H.7 SFRSYM    DATA     BIT       CY
      000000BBH   SFRSYM    DATA     BYTE      ADCFGH
      000000DCH   SFRSYM    DATA     BYTE      PWMCMAX
      000000B1H   SFRSYM    DATA     BYTE      I2CCON
      000000D1H   SFRSYM    DATA     BYTE      PWMDIVH
      000000BAH   SFRSYM    DATA     BYTE      ADCFGL
      00000081H   SFRSYM    DATA     BYTE      SP
      000000F9H   SFRSYM    DATA     BYTE      EPIE
      000000D0H.2 SFRSYM    DATA     BIT       OV
      000000FAH   SFRSYM    DATA     BYTE      EPIF
      000000DFH   SFRSYM    DATA     BYTE      PWMDIVL
      000000B6H   SFRSYM    DATA     BYTE      I2CSTA
      000000E8H   SFRSYM    DATA     BYTE      EXIE
      000000D3H   SFRSYM    DATA     BYTE      PWMDUTH
      000000C7H   SFRSYM    DATA     BYTE      TKIF
      0000008FH   SFRSYM    DATA     BYTE      IT0CON
      00000080H.0 SFRSYM    DATA     BIT       P00
      000000ECH   SFRSYM    DATA     BYTE      RTAH
      000000D2H   SFRSYM    DATA     BYTE      PWMDUTL
LX51 LINKER/LOCATER V4.66.97.0                                                        04/10/2021  13:15:07  PAGE 34


      0000008EH   SFRSYM    DATA     BYTE      IT1CON
      00000090H.0 SFRSYM    DATA     BIT       P10
      00000080H.1 SFRSYM    DATA     BIT       P01
      0000009DH   SFRSYM    DATA     BYTE      S1RELH
      00000087H   SFRSYM    DATA     BYTE      PCON
      000000A0H.0 SFRSYM    DATA     BIT       P20
      00000090H.1 SFRSYM    DATA     BIT       P11
      00000080H.2 SFRSYM    DATA     BIT       P02
      000000E8H.0 SFRSYM    DATA     BIT       INT2EN
      000000F4H   SFRSYM    DATA     BYTE      RTCH
      000000A4H   SFRSYM    DATA     BYTE      S2RELH
      000000B0H.2 SFRSYM    DATA     BIT       LED_SW_MOD_GPIO
      000000B0H.0 SFRSYM    DATA     BIT       P30
      000000A0H.1 SFRSYM    DATA     BIT       P21
      00000090H.2 SFRSYM    DATA     BIT       P12
      00000080H.3 SFRSYM    DATA     BIT       P03
      000000E8H.1 SFRSYM    DATA     BIT       INT3EN
      000000C0H.0 SFRSYM    DATA     BIT       P40
      000000B0H.1 SFRSYM    DATA     BIT       P31
      000000A0H.2 SFRSYM    DATA     BIT       P22
      00000090H.3 SFRSYM    DATA     BIT       P13
      00000080H.4 SFRSYM    DATA     BIT       P04
      000000E8H.2 SFRSYM    DATA     BIT       INT4EN
      000000D8H.0 SFRSYM    DATA     BIT       P50
      000000C0H.1 SFRSYM    DATA     BIT       P41
      000000B0H.2 SFRSYM    DATA     BIT       P32
      000000A0H.3 SFRSYM    DATA     BIT       P23
      00000090H.4 SFRSYM    DATA     BIT       P14
      00000080H.5 SFRSYM    DATA     BIT       P05
      000000E8H.3 SFRSYM    DATA     BIT       INT5EN
      000000EBH   SFRSYM    DATA     BYTE      RTAM
      0000009CH   SFRSYM    DATA     BYTE      S1RELL
      00000089H   SFRSYM    DATA     BYTE      TMOD
      00000088H   SFRSYM    DATA     BYTE      TCON
      000000D8H.1 SFRSYM    DATA     BIT       P51
      000000C0H.2 SFRSYM    DATA     BIT       P42
      000000B0H.3 SFRSYM    DATA     BIT       P33
      000000A0H.4 SFRSYM    DATA     BIT       P24
      00000090H.5 SFRSYM    DATA     BIT       P15
      00000080H.6 SFRSYM    DATA     BIT       P06
      000000E8H.4 SFRSYM    DATA     BIT       INT6EN
      000000A3H   SFRSYM    DATA     BYTE      S2RELL
      000000D8H.2 SFRSYM    DATA     BIT       P52
      000000C0H.3 SFRSYM    DATA     BIT       P43
      000000B0H.4 SFRSYM    DATA     BIT       P34
      000000A0H.5 SFRSYM    DATA     BIT       P25
      00000090H.6 SFRSYM    DATA     BIT       P16
      00000080H.7 SFRSYM    DATA     BIT       P07
      000000E8H.5 SFRSYM    DATA     BIT       INT7EN
      000000C8H.2 SFRSYM    DATA     BIT       UCKS
      000000F8H   SFRSYM    DATA     BYTE      EXIP
      000000F3H   SFRSYM    DATA     BYTE      RTCM
      000000D8H.3 SFRSYM    DATA     BIT       P53
      000000C0H.4 SFRSYM    DATA     BIT       P44
      000000B0H.5 SFRSYM    DATA     BIT       P35
      000000A0H.6 SFRSYM    DATA     BIT       P26
      00000090H.7 SFRSYM    DATA     BIT       P17
      000000E8H.6 SFRSYM    DATA     BIT       INT8EN
      000000D8H.4 SFRSYM    DATA     BIT       P54
      000000C0H.5 SFRSYM    DATA     BIT       P45
      000000B0H.6 SFRSYM    DATA     BIT       P36
      000000A0H.7 SFRSYM    DATA     BIT       P27
      000000E8H.7 SFRSYM    DATA     BIT       INT9EN
      000000D8H.5 SFRSYM    DATA     BIT       P55
      000000C0H.6 SFRSYM    DATA     BIT       P46
LX51 LINKER/LOCATER V4.66.97.0                                                        04/10/2021  13:15:07  PAGE 35


      000000B0H.7 SFRSYM    DATA     BIT       P37
      000000D8H.6 SFRSYM    DATA     BIT       P56
      000000C0H.7 SFRSYM    DATA     BIT       P47
      000000EAH   SFRSYM    DATA     BYTE      RTAS
      000000AFH   SFRSYM    DATA     BYTE      HVTH
      00000095H   SFRSYM    DATA     BYTE      RCTAGH
      000000D8H.7 SFRSYM    DATA     BIT       P57
      000000F2H   SFRSYM    DATA     BYTE      RTCS
      00000088H.1 SFRSYM    DATA     BIT       IE0
      00000088H.3 SFRSYM    DATA     BIT       IE1
      00000094H   SFRSYM    DATA     BYTE      RCTAGL
      000000F0H   SFRSYM    DATA     BYTE      B
      000000E7H   SFRSYM    DATA     BYTE      MDUDAT
      000000C0H.0 SFRSYM    DATA     BIT       busy
      000000DEH   SFRSYM    DATA     BYTE      PWMCFG
      000000D4H   SFRSYM    DATA     BYTE      PWMAIF
      000000E0H   SFRSYM    DATA     BYTE      ACC
      000000D5H   SFRSYM    DATA     BYTE      PWMBIF
      0000009FH   SFRSYM    DATA     BYTE      RCMSHH
      000000A8H.4 SFRSYM    DATA     BIT       ES0
      000000EFH   SFRSYM    DATA     BYTE      LVDCON
      000000E6H   SFRSYM    DATA     BYTE      MDUCON
      000000D6H   SFRSYM    DATA     BYTE      PWMCIF
      000000A8H.1 SFRSYM    DATA     BIT       ET0
      000000A8H.6 SFRSYM    DATA     BIT       ES1
      000000D7H   SFRSYM    DATA     BYTE      PWMDIF
      000000A8H.3 SFRSYM    DATA     BIT       ET1
      00000088H.5 SFRSYM    DATA     BIT       TF0
      000000FDH   SFRSYM    DATA     BYTE      IDLSTH
      000000AEH   SFRSYM    DATA     BYTE      PLLCON
      000000A8H.5 SFRSYM    DATA     BIT       ET2
      00000098H.0 SFRSYM    DATA     BIT       RI0
      00000088H.7 SFRSYM    DATA     BIT       TF1
      0000009EH   SFRSYM    DATA     BYTE      RCMSHL
      00000097H   SFRSYM    DATA     BYTE      RCMSLH
      000000C8H.7 SFRSYM    DATA     BIT       TF2
      00000098H.2 SFRSYM    DATA     BIT       RB8
      0000008CH   SFRSYM    DATA     BYTE      TH0
      000000A8H.0 SFRSYM    DATA     BIT       EX0
      00000098H.1 SFRSYM    DATA     BIT       TI0
      00000088H.0 SFRSYM    DATA     BIT       IT0
      0000008DH   SFRSYM    DATA     BYTE      TH1
      000000A8H.2 SFRSYM    DATA     BIT       EX1
      00000098H.3 SFRSYM    DATA     BIT       TB8
      00000088H.2 SFRSYM    DATA     BIT       IT1
      000000FCH   SFRSYM    DATA     BYTE      IDLSTL
      000000CDH   SFRSYM    DATA     BYTE      TH2
      000000D0H.0 SFRSYM    DATA     BIT       P
      00000096H   SFRSYM    DATA     BYTE      RCMSLL
      00000098H.7 SFRSYM    DATA     BIT       SM0
      0000008AH   SFRSYM    DATA     BYTE      TL0
      00000098H.6 SFRSYM    DATA     BIT       SM1
      000000E5H   SFRSYM    DATA     BYTE      LXDIVH
      0000008BH   SFRSYM    DATA     BYTE      TL1
      000000D8H.4 SFRSYM    DATA     BIT       BL_CTL
      00000098H.5 SFRSYM    DATA     BIT       SM2
      000000CCH   SFRSYM    DATA     BYTE      TL2
      000000B8H.4 SFRSYM    DATA     BIT       PS0
      000000B8H.1 SFRSYM    DATA     BIT       PT0
      000000B8H.6 SFRSYM    DATA     BIT       PS1
      000000B8H.3 SFRSYM    DATA     BIT       PT1
      000000D0H.3 SFRSYM    DATA     BIT       RS0
      000000E4H   SFRSYM    DATA     BYTE      LXDIVL
      000000BDH   SFRSYM    DATA     BYTE      ADCDH
      000000B8H.5 SFRSYM    DATA     BIT       PT2
LX51 LINKER/LOCATER V4.66.97.0                                                        04/10/2021  13:15:07  PAGE 36


      00000088H.4 SFRSYM    DATA     BIT       TR0
      000000D0H.4 SFRSYM    DATA     BIT       RS1
      000000DDH   SFRSYM    DATA     BYTE      PWMCON
      00000088H.6 SFRSYM    DATA     BIT       TR1
      000000ADH   SFRSYM    DATA     BYTE      WDVTHH
      000000C8H.6 SFRSYM    DATA     BIT       TR2
      000000B8H.0 SFRSYM    DATA     BIT       PX0
      000000B8H.2 SFRSYM    DATA     BIT       PX1
      000000BCH   SFRSYM    DATA     BYTE      ADCDL
      000000ACH   SFRSYM    DATA     BYTE      WDVTHL
      000000DBH   SFRSYM    DATA     BYTE      PWMUPD
      000000C0H.5 SFRSYM    DATA     BIT       KEY_AD_GPIO
      00000099H   SFRSYM    DATA     BYTE      S0BUF
      0000009BH   SFRSYM    DATA     BYTE      S1BUF
      000000D8H.4 SFRSYM    DATA     BIT       BL_CTL_GPIO
      000000A2H   SFRSYM    DATA     BYTE      S2BUF
      00000098H   SFRSYM    DATA     BYTE      S0CON
      00000098H.4 SFRSYM    DATA     BIT       REN
      0000009AH   SFRSYM    DATA     BYTE      S1CON
      000000B9H   SFRSYM    DATA     BYTE      ADCON
      000000A1H   SFRSYM    DATA     BYTE      S2CON
      000000D0H.1 SFRSYM    DATA     BIT       DPS
      000000C9H   SFRSYM    DATA     BYTE      T2MOD
      000000C8H   SFRSYM    DATA     BYTE      T2CON
      000000FFH   SFRSYM    DATA     BYTE      STPSTH
      000000BFH   SFRSYM    DATA     BYTE      CKMIF
      000000FEH   SFRSYM    DATA     BYTE      STPSTL
      000000C2H   SFRSYM    DATA     BYTE      TKCFG
      00000093H   SFRSYM    DATA     BYTE      VCKDH
      000000B0H.3 SFRSYM    DATA     BIT       motor_a
      000000D0H.5 SFRSYM    DATA     BIT       F0
      000000E2H   SFRSYM    DATA     BYTE      LXCFG
      000000ABH   SFRSYM    DATA     BYTE      WDFLG
      00000092H   SFRSYM    DATA     BYTE      VCKDL
      000000B0H.7 SFRSYM    DATA     BIT       motor_b
      000000FBH   SFRSYM    DATA     BYTE      EPCON
      000000F6H   SFRSYM    DATA     BYTE      RTCDH
      000000C6H   SFRSYM    DATA     BYTE      ATKMH
      00000091H   SFRSYM    DATA     BYTE      RCCON
      000000F7H   SFRSYM    DATA     BYTE      INDEX
      000000EEH   SFRSYM    DATA     BYTE      RTCIF
      000000BEH   SFRSYM    DATA     BYTE      CKMON
      000000F5H   SFRSYM    DATA     BYTE      RTCDL
      000000D0H   SFRSYM    DATA     BYTE      PSW
      000000C5H   SFRSYM    DATA     BYTE      ATKML
      000000AAH   SFRSYM    DATA     BYTE      WDCON
      000000A6H   SFRSYM    DATA     BYTE      SPDAT
      01002927H   SYMBOL    CODE     ---       _enter_alarm_seting
      01003499H   SYMBOL    CODE     ---       _test_alarm_set_step
      0100372EH   SYMBOL    CODE     ---       key_alarm_set_short_up_handler
      0100001EH   SYMBOL    CODE     ---       key_al1_long_press_handler
      01003C50H   SYMBOL    CODE     ---       key_al2_long_press_handler
      0100392AH   SYMBOL    CODE     ---       test_time_set_step
      010039A1H   SYMBOL    CODE     ---       key_snooze_long_handler
      010039EDH   SYMBOL    CODE     ---       key_12_24h_long_press_handler
      010024FBH   SYMBOL    CODE     ---       key_down_handler
      0100306AH   SYMBOL    CODE     ---       _alarm_stop_key_function
      02000317H   SYMBOL    XDATA    BYTE      test_key2_cnt
      01001240H   SYMBOL    CODE     ---       set_clock_add
      010036C2H   SYMBOL    CODE     ---       key_al1_short_up_handler
      0100234BH   SYMBOL    CODE     ---       set_alarm_add
      0100368AH   SYMBOL    CODE     ---       key_al2_short_up_handler
      010034DBH   SYMBOL    CODE     ---       key_up_down_double_handler
      01003B33H   SYMBOL    CODE     ---       key_alarm_set_long_press_handler
      01003C55H   SYMBOL    CODE     ---       key_alarm_set_short_press_handler
LX51 LINKER/LOCATER V4.66.97.0                                                        04/10/2021  13:15:07  PAGE 37


      01002053H   SYMBOL    CODE     ---       key_up_handler
      0100338AH   SYMBOL    CODE     ---       key_12_24h_short_up_handler
      010016DAH   SYMBOL    CODE     ---       set_clock_sub
      0100221EH   SYMBOL    CODE     ---       set_alarm_sub
      0100311CH   SYMBOL    CODE     ---       key_snooze_short_up_handler

      010028ACH   BLOCK     CODE     ---       LVL=0
      010028ACH   LINE      CODE     ---       #23
      010028ACH   LINE      CODE     ---       #24
      010028ACH   LINE      CODE     ---       #25
      010028B4H   LINE      CODE     ---       #26
      010028B4H   LINE      CODE     ---       #27
      010028B7H   LINE      CODE     ---       #28
      010028BFH   LINE      CODE     ---       #29
      010028FCH   LINE      CODE     ---       #30
      010028FCH   LINE      CODE     ---       #31
      010028FCH   LINE      CODE     ---       #32
      010028FFH   LINE      CODE     ---       #33
      010028FFH   LINE      CODE     ---       #34
      010028FFH   LINE      CODE     ---       #35
      01002902H   LINE      CODE     ---       #36
      01002902H   LINE      CODE     ---       #38
      01002902H   LINE      CODE     ---       #39
      01002902H   LINE      CODE     ---       #40
      01002902H   LINE      CODE     ---       #41
      01002905H   LINE      CODE     ---       #42
      01002905H   LINE      CODE     ---       #44
      01002905H   LINE      CODE     ---       #45
      01002905H   LINE      CODE     ---       #46
      01002905H   LINE      CODE     ---       #47
      01002908H   LINE      CODE     ---       #48
      01002908H   LINE      CODE     ---       #50
      01002908H   LINE      CODE     ---       #51
      0100290BH   LINE      CODE     ---       #52
      0100290BH   LINE      CODE     ---       #53
      0100290BH   LINE      CODE     ---       #54
      0100290EH   LINE      CODE     ---       #55
      0100290EH   LINE      CODE     ---       #57
      0100290EH   LINE      CODE     ---       #58
      01002911H   LINE      CODE     ---       #59
      01002911H   LINE      CODE     ---       #60
      01002911H   LINE      CODE     ---       #61
      01002914H   LINE      CODE     ---       #62
      01002914H   LINE      CODE     ---       #64
      01002914H   LINE      CODE     ---       #65
      01002917H   LINE      CODE     ---       #66
      01002917H   LINE      CODE     ---       #67
      01002917H   LINE      CODE     ---       #68
      0100291AH   LINE      CODE     ---       #69
      0100291AH   LINE      CODE     ---       #71
      0100291AH   LINE      CODE     ---       #72
      0100291DH   LINE      CODE     ---       #73
      0100291DH   LINE      CODE     ---       #75
      0100291DH   LINE      CODE     ---       #76
      01002920H   LINE      CODE     ---       #77
      01002920H   LINE      CODE     ---       #78
      01002920H   LINE      CODE     ---       #79
      01002923H   LINE      CODE     ---       #80
      01002923H   LINE      CODE     ---       #81
      01002923H   LINE      CODE     ---       #82
      01002926H   LINE      CODE     ---       #83
      01002926H   LINE      CODE     ---       #85
      01002926H   LINE      CODE     ---       #86
      01002926H   LINE      CODE     ---       #87
      01002926H   LINE      CODE     ---       #88
LX51 LINKER/LOCATER V4.66.97.0                                                        04/10/2021  13:15:07  PAGE 38


      ---         BLOCKEND  ---      ---       LVL=0

      01001F0AH   BLOCK     CODE     ---       LVL=0
      01001F0AH   LINE      CODE     ---       #98
      01001F0AH   LINE      CODE     ---       #99
      01001F0AH   LINE      CODE     ---       #100
      01001F13H   LINE      CODE     ---       #101
      01001F13H   LINE      CODE     ---       #102
      01001F1CH   LINE      CODE     ---       #103
      01001F1CH   LINE      CODE     ---       #104
      01001F20H   LINE      CODE     ---       #108
      01001F30H   LINE      CODE     ---       #110
      01001F30H   LINE      CODE     ---       #111
      01001F30H   LINE      CODE     ---       #112
      01001F32H   LINE      CODE     ---       #113
      01001F38H   LINE      CODE     ---       #114
      01001F38H   LINE      CODE     ---       #117
      01001F51H   LINE      CODE     ---       #118
      01001F66H   LINE      CODE     ---       #119
      01001F7BH   LINE      CODE     ---       #120
      01001F90H   LINE      CODE     ---       #121
      01001F95H   LINE      CODE     ---       #122
      01001F96H   LINE      CODE     ---       #123
      01001F9EH   LINE      CODE     ---       #124
      01001F9EH   LINE      CODE     ---       #125
      01001FA3H   LINE      CODE     ---       #126
      01001FA8H   LINE      CODE     ---       #127
      01001FACH   LINE      CODE     ---       #128
      01001FAFH   LINE      CODE     ---       #129
      01001FAFH   LINE      CODE     ---       #130
      01001FAFH   LINE      CODE     ---       #131
      01001FAFH   LINE      CODE     ---       #132
      ---         BLOCKEND  ---      ---       LVL=0

      0100392AH   BLOCK     CODE     ---       LVL=0
      0100392AH   LINE      CODE     ---       #146
      0100392AH   LINE      CODE     ---       #147
      0100392AH   LINE      CODE     ---       #148
      0100392FH   LINE      CODE     ---       #149
      01003932H   LINE      CODE     ---       #150
      0100393AH   LINE      CODE     ---       #151
      0100393AH   LINE      CODE     ---       #152
      0100393FH   LINE      CODE     ---       #154
      0100393FH   LINE      CODE     ---       #156
      0100393FH   LINE      CODE     ---       #157
      01003945H   LINE      CODE     ---       #158
      01003945H   LINE      CODE     ---       #160
      0100394BH   LINE      CODE     ---       #161
      01003951H   LINE      CODE     ---       #162
      ---         BLOCKEND  ---      ---       LVL=0

      0100338AH   BLOCK     CODE     ---       LVL=0
      0100338AH   LINE      CODE     ---       #174
      0100338AH   LINE      CODE     ---       #175
      0100338AH   LINE      CODE     ---       #176
      01003392H   LINE      CODE     ---       #177
      01003392H   LINE      CODE     ---       #178
      0100339AH   LINE      CODE     ---       #179
      0100339AH   LINE      CODE     ---       #180
      0100339EH   LINE      CODE     ---       #181
      010033A1H   LINE      CODE     ---       #182
      010033A7H   LINE      CODE     ---       #183
      010033A7H   LINE      CODE     ---       #184
      010033A8H   LINE      CODE     ---       #185
      010033AEH   LINE      CODE     ---       #186
LX51 LINKER/LOCATER V4.66.97.0                                                        04/10/2021  13:15:07  PAGE 39


      010033AEH   LINE      CODE     ---       #187
      010033BDH   LINE      CODE     ---       #188
      010033C2H   LINE      CODE     ---       #189
      010033C2H   LINE      CODE     ---       #190
      010033CAH   LINE      CODE     ---       #191
      010033CAH   LINE      CODE     ---       #192
      010033CDH   LINE      CODE     ---       #193
      010033CDH   LINE      CODE     ---       #194
      ---         BLOCKEND  ---      ---       LVL=0

      010039EDH   BLOCK     CODE     ---       LVL=0
      010039EDH   LINE      CODE     ---       #206
      010039EDH   LINE      CODE     ---       #207
      010039EDH   LINE      CODE     ---       #208
      010039F3H   LINE      CODE     ---       #209
      010039F3H   LINE      CODE     ---       #210
      010039F6H   LINE      CODE     ---       #211
      010039FCH   LINE      CODE     ---       #212
      01003A00H   LINE      CODE     ---       #213
      01003A05H   LINE      CODE     ---       #214
      01003A0BH   LINE      CODE     ---       #215
      01003A11H   LINE      CODE     ---       #216
      01003A11H   LINE      CODE     ---       #217
      ---         BLOCKEND  ---      ---       LVL=0

      01002053H   BLOCK     CODE     ---       LVL=0
      01002053H   LINE      CODE     ---       #231
      01002053H   LINE      CODE     ---       #232
      01002053H   LINE      CODE     ---       #234
      0100205BH   LINE      CODE     ---       #235
      0100205BH   LINE      CODE     ---       #236
      01002066H   LINE      CODE     ---       #237
      01002066H   LINE      CODE     ---       #238
      0100206AH   LINE      CODE     ---       #239
      0100206DH   LINE      CODE     ---       #240
      01002073H   LINE      CODE     ---       #241
      01002073H   LINE      CODE     ---       #242
      01002074H   LINE      CODE     ---       #243
      0100207AH   LINE      CODE     ---       #244
      0100207AH   LINE      CODE     ---       #245
      0100207FH   LINE      CODE     ---       #246
      0100207FH   LINE      CODE     ---       #247
      01002088H   LINE      CODE     ---       #248
      01002088H   LINE      CODE     ---       #249
      01002095H   LINE      CODE     ---       #250
      01002095H   LINE      CODE     ---       #251
      01002098H   LINE      CODE     ---       #252
      01002098H   LINE      CODE     ---       #253
      010020A5H   LINE      CODE     ---       #254
      010020A5H   LINE      CODE     ---       #255
      010020A7H   LINE      CODE     ---       #256
      010020A7H   LINE      CODE     ---       #257
      010020A8H   LINE      CODE     ---       #261
      010020A8H   LINE      CODE     ---       #265
      010020A8H   LINE      CODE     ---       #266
      010020ADH   LINE      CODE     ---       #267
      010020B1H   LINE      CODE     ---       #268
      010020B7H   LINE      CODE     ---       #269
      010020C4H   LINE      CODE     ---       #270
      010020C4H   LINE      CODE     ---       #271
      010020C9H   LINE      CODE     ---       #272
      010020CEH   LINE      CODE     ---       #273
      010020CEH   LINE      CODE     ---       #274
      010020DDH   LINE      CODE     ---       #275
      010020E0H   LINE      CODE     ---       #276
LX51 LINKER/LOCATER V4.66.97.0                                                        04/10/2021  13:15:07  PAGE 40


      010020E0H   LINE      CODE     ---       #277
      010020E0H   LINE      CODE     ---       #279
      010020E6H   LINE      CODE     ---       #280
      010020ECH   LINE      CODE     ---       #281
      010020ECH   LINE      CODE     ---       #282
      010020ECH   LINE      CODE     ---       #283
      ---         BLOCKEND  ---      ---       LVL=0

      010024FBH   BLOCK     CODE     ---       LVL=0
      010024FBH   LINE      CODE     ---       #295
      010024FBH   LINE      CODE     ---       #296
      010024FBH   LINE      CODE     ---       #297
      01002503H   LINE      CODE     ---       #298
      01002503H   LINE      CODE     ---       #299
      0100250BH   LINE      CODE     ---       #300
      0100250BH   LINE      CODE     ---       #301
      0100250FH   LINE      CODE     ---       #302
      01002512H   LINE      CODE     ---       #303
      01002515H   LINE      CODE     ---       #304
      01002515H   LINE      CODE     ---       #305
      01002517H   LINE      CODE     ---       #306
      0100251DH   LINE      CODE     ---       #307
      0100251DH   LINE      CODE     ---       #308
      01002522H   LINE      CODE     ---       #309
      01002522H   LINE      CODE     ---       #311
      0100252BH   LINE      CODE     ---       #312
      0100252BH   LINE      CODE     ---       #313
      01002538H   LINE      CODE     ---       #314
      01002538H   LINE      CODE     ---       #315
      0100253BH   LINE      CODE     ---       #316
      0100253CH   LINE      CODE     ---       #318
      0100253CH   LINE      CODE     ---       #319
      01002542H   LINE      CODE     ---       #320
      01002542H   LINE      CODE     ---       #321
      01002543H   LINE      CODE     ---       #324
      01002543H   LINE      CODE     ---       #328
      01002543H   LINE      CODE     ---       #329
      01002548H   LINE      CODE     ---       #330
      0100254CH   LINE      CODE     ---       #331
      01002552H   LINE      CODE     ---       #332
      0100255FH   LINE      CODE     ---       #333
      0100255FH   LINE      CODE     ---       #334
      01002564H   LINE      CODE     ---       #335
      01002569H   LINE      CODE     ---       #336
      01002569H   LINE      CODE     ---       #337
      01002578H   LINE      CODE     ---       #338
      0100257BH   LINE      CODE     ---       #339
      0100257BH   LINE      CODE     ---       #340
      0100257BH   LINE      CODE     ---       #342
      01002581H   LINE      CODE     ---       #343
      01002587H   LINE      CODE     ---       #344
      01002587H   LINE      CODE     ---       #345
      01002587H   LINE      CODE     ---       #346
      ---         BLOCKEND  ---      ---       LVL=0

      01003499H   BLOCK     CODE     ---       LVL=0
      00000007H   SYMBOL    DATA     BYTE      _set_alarm
      01003499H   LINE      CODE     ---       #358
      01003499H   LINE      CODE     ---       #359
      01003499H   LINE      CODE     ---       #360
      010034A0H   LINE      CODE     ---       #361
      010034A0H   LINE      CODE     ---       #362
      010034A4H   LINE      CODE     ---       #363
      010034A7H   LINE      CODE     ---       #365
      010034AFH   LINE      CODE     ---       #366
LX51 LINKER/LOCATER V4.66.97.0                                                        04/10/2021  13:15:07  PAGE 41


      010034AFH   LINE      CODE     ---       #367
      010034B3H   LINE      CODE     ---       #368
      010034B9H   LINE      CODE     ---       #369
      010034C0H   LINE      CODE     ---       #371
      010034C6H   LINE      CODE     ---       #372
      010034C8H   LINE      CODE     ---       #374
      010034C8H   LINE      CODE     ---       #375
      010034CEH   LINE      CODE     ---       #376
      010034CEH   LINE      CODE     ---       #377
      010034D4H   LINE      CODE     ---       #378
      010034DAH   LINE      CODE     ---       #379
      010034DAH   LINE      CODE     ---       #380
      ---         BLOCKEND  ---      ---       LVL=0

      01002927H   BLOCK     CODE     ---       LVL=0
      00000007H   SYMBOL    DATA     BYTE      _set_alarm
      01002927H   LINE      CODE     ---       #391
      01002927H   LINE      CODE     ---       #392
      01002927H   LINE      CODE     ---       #393
      0100292CH   LINE      CODE     ---       #395
      01002931H   LINE      CODE     ---       #397
      01002945H   LINE      CODE     ---       #398
      01002958H   LINE      CODE     ---       #399
      0100296EH   LINE      CODE     ---       #400
      01002981H   LINE      CODE     ---       #402
      01002984H   LINE      CODE     ---       #404
      0100298AH   LINE      CODE     ---       #406
      0100298FH   LINE      CODE     ---       #407
      01002995H   LINE      CODE     ---       #408
      0100299BH   LINE      CODE     ---       #409
      010029A1H   LINE      CODE     ---       #410
      ---         BLOCKEND  ---      ---       LVL=0

      0100306AH   BLOCK     CODE     ---       LVL=0
      00000007H   SYMBOL    DATA     BYTE      _key
      0100306AH   LINE      CODE     ---       #423
      0100306AH   LINE      CODE     ---       #424
      0100306AH   LINE      CODE     ---       #425
      01003070H   LINE      CODE     ---       #426
      01003070H   LINE      CODE     ---       #427
      0100307BH   LINE      CODE     ---       #428
      0100307CH   LINE      CODE     ---       #430
      01003087H   LINE      CODE     ---       #431
      01003087H   LINE      CODE     ---       #432
      01003099H   LINE      CODE     ---       #433
      0100309AH   LINE      CODE     ---       #435
      0100309AH   LINE      CODE     ---       #436
      010030A3H   LINE      CODE     ---       #437
      010030A3H   LINE      CODE     ---       #438
      010030A3H   LINE      CODE     ---       #454
      010030B2H   LINE      CODE     ---       #456
      010030B3H   LINE      CODE     ---       #457
      010030B3H   LINE      CODE     ---       #473
      010030C2H   LINE      CODE     ---       #475
      010030C2H   LINE      CODE     ---       #476
      010030C2H   LINE      CODE     ---       #477
      010030C2H   LINE      CODE     ---       #478
      010030C2H   LINE      CODE     ---       #479
      ---         BLOCKEND  ---      ---       LVL=0

      010036C2H   BLOCK     CODE     ---       LVL=0
      010036C2H   LINE      CODE     ---       #490
      010036C2H   LINE      CODE     ---       #491
      010036C2H   LINE      CODE     ---       #492
      010036CAH   LINE      CODE     ---       #493
LX51 LINKER/LOCATER V4.66.97.0                                                        04/10/2021  13:15:07  PAGE 42


      010036CAH   LINE      CODE     ---       #494
      010036D2H   LINE      CODE     ---       #495
      010036D2H   LINE      CODE     ---       #496
      010036D6H   LINE      CODE     ---       #497
      010036D9H   LINE      CODE     ---       #498
      010036DFH   LINE      CODE     ---       #499
      010036DFH   LINE      CODE     ---       #500
      010036E0H   LINE      CODE     ---       #501
      010036E9H   LINE      CODE     ---       #502
      010036E9H   LINE      CODE     ---       #503
      010036EEH   LINE      CODE     ---       #504
      010036EEH   LINE      CODE     ---       #505
      010036F4H   LINE      CODE     ---       #506
      010036F4H   LINE      CODE     ---       #507
      010036F8H   LINE      CODE     ---       #508
      010036F8H   LINE      CODE     ---       #509
      ---         BLOCKEND  ---      ---       LVL=0

      0100001EH   BLOCK     CODE     ---       LVL=0
      0100001EH   LINE      CODE     ---       #521
      0100001EH   LINE      CODE     ---       #522
      0100001EH   LINE      CODE     ---       #523
      ---         BLOCKEND  ---      ---       LVL=0

      0100368AH   BLOCK     CODE     ---       LVL=0
      0100368AH   LINE      CODE     ---       #535
      0100368AH   LINE      CODE     ---       #536
      0100368AH   LINE      CODE     ---       #537
      01003692H   LINE      CODE     ---       #538
      01003692H   LINE      CODE     ---       #539
      0100369AH   LINE      CODE     ---       #540
      0100369AH   LINE      CODE     ---       #541
      0100369EH   LINE      CODE     ---       #542
      010036A1H   LINE      CODE     ---       #543
      010036A7H   LINE      CODE     ---       #544
      010036A7H   LINE      CODE     ---       #545
      010036A8H   LINE      CODE     ---       #546
      010036B1H   LINE      CODE     ---       #547
      010036B1H   LINE      CODE     ---       #548
      010036B6H   LINE      CODE     ---       #549
      010036B6H   LINE      CODE     ---       #550
      010036BCH   LINE      CODE     ---       #551
      010036BCH   LINE      CODE     ---       #552
      010036C1H   LINE      CODE     ---       #553
      010036C1H   LINE      CODE     ---       #554
      ---         BLOCKEND  ---      ---       LVL=0

      01003C50H   BLOCK     CODE     ---       LVL=0
      01003C50H   LINE      CODE     ---       #564
      01003C50H   LINE      CODE     ---       #565
      01003C50H   LINE      CODE     ---       #566
      ---         BLOCKEND  ---      ---       LVL=0

      0100311CH   BLOCK     CODE     ---       LVL=0
      0100311CH   LINE      CODE     ---       #578
      0100311CH   LINE      CODE     ---       #579
      0100311CH   LINE      CODE     ---       #580
      01003124H   LINE      CODE     ---       #581
      01003124H   LINE      CODE     ---       #582
      0100312FH   LINE      CODE     ---       #583
      0100312FH   LINE      CODE     ---       #584
      0100312FH   LINE      CODE     ---       #585
      01003132H   LINE      CODE     ---       #586
      01003138H   LINE      CODE     ---       #587
      0100313CH   LINE      CODE     ---       #588
LX51 LINKER/LOCATER V4.66.97.0                                                        04/10/2021  13:15:07  PAGE 43


      01003141H   LINE      CODE     ---       #589
      01003141H   LINE      CODE     ---       #590
      01003142H   LINE      CODE     ---       #591
      01003146H   LINE      CODE     ---       #592
      01003149H   LINE      CODE     ---       #593
      01003149H   LINE      CODE     ---       #594
      01003149H   LINE      CODE     ---       #596
      01003149H   LINE      CODE     ---       #597
      0100314EH   LINE      CODE     ---       #598
      01003151H   LINE      CODE     ---       #599
      01003154H   LINE      CODE     ---       #600
      01003159H   LINE      CODE     ---       #601
      0100315AH   LINE      CODE     ---       #603
      0100315AH   LINE      CODE     ---       #607
      0100315AH   LINE      CODE     ---       #636
      0100315AH   LINE      CODE     ---       #637
      01003160H   LINE      CODE     ---       #638
      01003160H   LINE      CODE     ---       #639
      01003166H   LINE      CODE     ---       #640
      01003166H   LINE      CODE     ---       #641
      01003169H   LINE      CODE     ---       #642
      01003169H   LINE      CODE     ---       #643
      01003169H   LINE      CODE     ---       #644
      01003171H   LINE      CODE     ---       #645
      01003171H   LINE      CODE     ---       #646
      01003172H   LINE      CODE     ---       #647
      01003172H   LINE      CODE     ---       #648
      ---         BLOCKEND  ---      ---       LVL=0

      010039A1H   BLOCK     CODE     ---       LVL=0
      010039A1H   LINE      CODE     ---       #659
      010039A1H   LINE      CODE     ---       #660
      010039A1H   LINE      CODE     ---       #661
      010039A7H   LINE      CODE     ---       #662
      010039A7H   LINE      CODE     ---       #663
      010039ABH   LINE      CODE     ---       #664
      010039AEH   LINE      CODE     ---       #665
      010039B4H   LINE      CODE     ---       #666
      010039BAH   LINE      CODE     ---       #667
      010039C0H   LINE      CODE     ---       #668
      010039C6H   LINE      CODE     ---       #669
      010039C6H   LINE      CODE     ---       #670
      ---         BLOCKEND  ---      ---       LVL=0

      0100372EH   BLOCK     CODE     ---       LVL=0
      0100372EH   LINE      CODE     ---       #682
      0100372EH   LINE      CODE     ---       #683
      0100372EH   LINE      CODE     ---       #684
      01003733H   LINE      CODE     ---       #685
      0100373BH   LINE      CODE     ---       #686
      0100373BH   LINE      CODE     ---       #687
      01003743H   LINE      CODE     ---       #688
      01003743H   LINE      CODE     ---       #689
      01003747H   LINE      CODE     ---       #690
      0100374AH   LINE      CODE     ---       #691
      01003750H   LINE      CODE     ---       #692
      01003750H   LINE      CODE     ---       #693
      01003751H   LINE      CODE     ---       #694
      01003759H   LINE      CODE     ---       #695
      01003759H   LINE      CODE     ---       #696
      0100375CH   LINE      CODE     ---       #697
      01003761H   LINE      CODE     ---       #698
      01003761H   LINE      CODE     ---       #699
      ---         BLOCKEND  ---      ---       LVL=0

LX51 LINKER/LOCATER V4.66.97.0                                                        04/10/2021  13:15:07  PAGE 44


      01003B33H   BLOCK     CODE     ---       LVL=0
      01003B33H   LINE      CODE     ---       #709
      01003B33H   LINE      CODE     ---       #710
      01003B33H   LINE      CODE     ---       #711
      01003B38H   LINE      CODE     ---       #712
      01003B3EH   LINE      CODE     ---       #713
      01003B3EH   LINE      CODE     ---       #714
      01003B41H   LINE      CODE     ---       #715
      01003B47H   LINE      CODE     ---       #716
      01003B47H   LINE      CODE     ---       #717
      ---         BLOCKEND  ---      ---       LVL=0

      01003C55H   BLOCK     CODE     ---       LVL=0
      01003C55H   LINE      CODE     ---       #726
      01003C55H   LINE      CODE     ---       #727
      01003C55H   LINE      CODE     ---       #728
      ---         BLOCKEND  ---      ---       LVL=0

      010034DBH   BLOCK     CODE     ---       LVL=0
      010034DBH   LINE      CODE     ---       #740
      010034DBH   LINE      CODE     ---       #741
      010034DBH   LINE      CODE     ---       #742
      010034E3H   LINE      CODE     ---       #743
      010034E3H   LINE      CODE     ---       #744
      010034E6H   LINE      CODE     ---       #745
      010034EBH   LINE      CODE     ---       #746
      010034EEH   LINE      CODE     ---       #748
      010034F7H   LINE      CODE     ---       #749
      010034FEH   LINE      CODE     ---       #750
      01003507H   LINE      CODE     ---       #751
      01003510H   LINE      CODE     ---       #752
      01003516H   LINE      CODE     ---       #753
      0100351CH   LINE      CODE     ---       #754
      0100351CH   LINE      CODE     ---       #756
      ---         BLOCKEND  ---      ---       LVL=0

      01001240H   BLOCK     CODE     ---       LVL=0
      01001240H   LINE      CODE     ---       #768
      01001240H   LINE      CODE     ---       #769
      01001240H   LINE      CODE     ---       #770
      01001249H   LINE      CODE     ---       #771
      01001249H   LINE      CODE     ---       #772
      01001257H   LINE      CODE     ---       #773
      0100125AH   LINE      CODE     ---       #774
      01001260H   LINE      CODE     ---       #775
      01001260H   LINE      CODE     ---       #776
      0100126EH   LINE      CODE     ---       #777
      01001271H   LINE      CODE     ---       #778
      0100127CH   LINE      CODE     ---       #779
      0100127CH   LINE      CODE     ---       #780
      0100128BH   LINE      CODE     ---       #781
      0100128EH   LINE      CODE     ---       #782
      01001294H   LINE      CODE     ---       #783
      01001294H   LINE      CODE     ---       #784
      010012B6H   LINE      CODE     ---       #785
      010012B9H   LINE      CODE     ---       #786
      010012C1H   LINE      CODE     ---       #787
      010012C1H   LINE      CODE     ---       #789
      010012EAH   LINE      CODE     ---       #790
      010012EAH   LINE      CODE     ---       #791
      0100130BH   LINE      CODE     ---       #792
      0100130BH   LINE      CODE     ---       #793
      01001317H   LINE      CODE     ---       #794
      01001319H   LINE      CODE     ---       #795
      01001321H   LINE      CODE     ---       #796
LX51 LINKER/LOCATER V4.66.97.0                                                        04/10/2021  13:15:07  PAGE 45


      01001321H   LINE      CODE     ---       #797
      01001327H   LINE      CODE     ---       #800
      01001366H   LINE      CODE     ---       #801
      01001366H   LINE      CODE     ---       #802
      0100136CH   LINE      CODE     ---       #804
      0100136CH   LINE      CODE     ---       #805
      0100136CH   LINE      CODE     ---       #806
      01001371H   LINE      CODE     ---       #807
      ---         BLOCKEND  ---      ---       LVL=0

      010016DAH   BLOCK     CODE     ---       LVL=0
      010016DAH   LINE      CODE     ---       #818
      010016DAH   LINE      CODE     ---       #819
      010016DAH   LINE      CODE     ---       #820
      010016E3H   LINE      CODE     ---       #821
      010016E3H   LINE      CODE     ---       #822
      010016F2H   LINE      CODE     ---       #823
      010016F5H   LINE      CODE     ---       #824
      010016FBH   LINE      CODE     ---       #825
      010016FBH   LINE      CODE     ---       #826
      0100170AH   LINE      CODE     ---       #827
      0100170DH   LINE      CODE     ---       #828
      01001718H   LINE      CODE     ---       #829
      01001718H   LINE      CODE     ---       #830
      01001727H   LINE      CODE     ---       #831
      0100172AH   LINE      CODE     ---       #832
      01001730H   LINE      CODE     ---       #833
      01001730H   LINE      CODE     ---       #834
      01001753H   LINE      CODE     ---       #835
      01001756H   LINE      CODE     ---       #836
      0100175EH   LINE      CODE     ---       #837
      0100175EH   LINE      CODE     ---       #838
      01001784H   LINE      CODE     ---       #839
      01001784H   LINE      CODE     ---       #840
      010017A2H   LINE      CODE     ---       #841
      010017A2H   LINE      CODE     ---       #842
      010017ADH   LINE      CODE     ---       #843
      010017AFH   LINE      CODE     ---       #844
      010017B7H   LINE      CODE     ---       #845
      010017B7H   LINE      CODE     ---       #846
      010017BFH   LINE      CODE     ---       #847
      010017BFH   LINE      CODE     ---       #849
      010017C8H   LINE      CODE     ---       #850
      010017C8H   LINE      CODE     ---       #851
      010017CDH   LINE      CODE     ---       #852
      010017CFH   LINE      CODE     ---       #854
      010017CFH   LINE      CODE     ---       #855
      010017E1H   LINE      CODE     ---       #856
      010017E1H   LINE      CODE     ---       #857
      010017E1H   LINE      CODE     ---       #858
      010017E1H   LINE      CODE     ---       #859
      010017E6H   LINE      CODE     ---       #860
      ---         BLOCKEND  ---      ---       LVL=0

      0100234BH   BLOCK     CODE     ---       LVL=0
      0100234BH   LINE      CODE     ---       #873
      0100234BH   LINE      CODE     ---       #874
      0100234BH   LINE      CODE     ---       #875
      01002356H   LINE      CODE     ---       #876
      01002356H   LINE      CODE     ---       #877
      0100236FH   LINE      CODE     ---       #878
      0100237BH   LINE      CODE     ---       #879
      0100237DH   LINE      CODE     ---       #880
      01002383H   LINE      CODE     ---       #881
      01002383H   LINE      CODE     ---       #882
LX51 LINKER/LOCATER V4.66.97.0                                                        04/10/2021  13:15:07  PAGE 46


      0100239CH   LINE      CODE     ---       #883
      010023A8H   LINE      CODE     ---       #884
      010023AAH   LINE      CODE     ---       #885
      010023B2H   LINE      CODE     ---       #886
      010023B2H   LINE      CODE     ---       #887
      010023CBH   LINE      CODE     ---       #888
      010023DBH   LINE      CODE     ---       #889
      010023DBH   LINE      CODE     ---       #890
      ---         BLOCKEND  ---      ---       LVL=0

      0100221EH   BLOCK     CODE     ---       LVL=0
      0100221EH   LINE      CODE     ---       #902
      0100221EH   LINE      CODE     ---       #903
      0100221EH   LINE      CODE     ---       #904
      01002229H   LINE      CODE     ---       #905
      01002229H   LINE      CODE     ---       #906
      01002241H   LINE      CODE     ---       #907
      01002252H   LINE      CODE     ---       #908
      01002253H   LINE      CODE     ---       #909
      01002259H   LINE      CODE     ---       #910
      01002259H   LINE      CODE     ---       #911
      01002271H   LINE      CODE     ---       #912
      01002282H   LINE      CODE     ---       #913
      01002283H   LINE      CODE     ---       #914
      0100228BH   LINE      CODE     ---       #915
      0100228BH   LINE      CODE     ---       #916
      010022A3H   LINE      CODE     ---       #917
      010022B4H   LINE      CODE     ---       #918
      010022B4H   LINE      CODE     ---       #919
      ---         BLOCKEND  ---      ---       LVL=0

      ---         MODULE    ---      ---       DELAY
      01003A77H   PUBLIC    CODE     ---       _Delay_ms
      0100355DH   PUBLIC    CODE     ---       _Delay_50us

      0100355DH   BLOCK     CODE     ---       LVL=0
      0200000CH   SYMBOL    XDATA    WORD      n
      01003565H   BLOCK     CODE     NEAR LAB  LVL=1
      00000003H   SYMBOL    DATA     BYTE      i
      ---         BLOCKEND  ---      ---       LVL=1
      0100355DH   LINE      CODE     ---       #5
      01003565H   LINE      CODE     ---       #6
      01003565H   LINE      CODE     ---       #9
      0100357CH   LINE      CODE     ---       #12
      0100358AH   LINE      CODE     ---       #13
      0100358AH   LINE      CODE     ---       #14
      01003599H   LINE      CODE     ---       #15
      01003599H   LINE      CODE     ---       #16
      ---         BLOCKEND  ---      ---       LVL=0

      01003A77H   BLOCK     CODE     ---       LVL=0
      02000000H   SYMBOL    XDATA    WORD      delay_nms
      01003A77H   LINE      CODE     ---       #17
      01003A7FH   LINE      CODE     ---       #18
      01003A7FH   LINE      CODE     ---       #19
      01003A8DH   LINE      CODE     ---       #20
      01003A8DH   LINE      CODE     ---       #21
      01003A94H   LINE      CODE     ---       #22
      01003A96H   LINE      CODE     ---       #23
      ---         BLOCKEND  ---      ---       LVL=0

      ---         MODULE    ---      ---       SYSTEM_CLOCK
      010037F8H   PUBLIC    CODE     ---       _Sys_Clk_Set_PLL
      000000E3H   SFRSYM    DATA     BYTE      LXDAT
      000000C4H   SFRSYM    DATA     BYTE      TKCHS
LX51 LINKER/LOCATER V4.66.97.0                                                        04/10/2021  13:15:07  PAGE 47


      00000080H   SFRSYM    DATA     BYTE      P0
      000000C1H   SFRSYM    DATA     BYTE      TKCON
      00000090H   SFRSYM    DATA     BYTE      P1
      000000A0H   SFRSYM    DATA     BYTE      P2
      000000B0H   SFRSYM    DATA     BYTE      P3
      000000D0H.6 SFRSYM    DATA     BIT       AC
      000000C0H   SFRSYM    DATA     BYTE      P4
      000000D8H   SFRSYM    DATA     BYTE      P5
      000000A5H   SFRSYM    DATA     BYTE      SPCON
      000000A8H.7 SFRSYM    DATA     BIT       EA
      000000E1H   SFRSYM    DATA     BYTE      LXCON
      000000A9H   SFRSYM    DATA     BYTE      P6
      000000C8H.0 SFRSYM    DATA     BIT       T2P0
      000000D9H   SFRSYM    DATA     BYTE      P7
      000000C8H.1 SFRSYM    DATA     BIT       T2P1
      000000F1H   SFRSYM    DATA     BYTE      RTCON
      000000C8H.4 SFRSYM    DATA     BIT       T2R0
      000000DAH   SFRSYM    DATA     BYTE      PWMEN
      000000CFH   SFRSYM    DATA     BYTE      TKMSH
      00000086H   SFRSYM    DATA     BYTE      PWCON
      000000C8H.5 SFRSYM    DATA     BIT       T2R1
      000000CEH   SFRSYM    DATA     BYTE      TKMSL
      000000A7H   SFRSYM    DATA     BYTE      SPSTA
      00000083H   SFRSYM    DATA     BYTE      DP0H
      000000A8H   SFRSYM    DATA     BYTE      IE
      00000085H   SFRSYM    DATA     BYTE      DP1H
      000000E9H   SFRSYM    DATA     BYTE      RTCSS
      00000082H   SFRSYM    DATA     BYTE      DP0L
      000000CBH   SFRSYM    DATA     BYTE      T2CH
      000000B3H   SFRSYM    DATA     BYTE      I2CADM
      00000084H   SFRSYM    DATA     BYTE      DP1L
      000000C8H.3 SFRSYM    DATA     BIT       T2IE
      000000C3H   SFRSYM    DATA     BYTE      TKMTS
      000000CAH   SFRSYM    DATA     BYTE      T2CL
      000000B2H   SFRSYM    DATA     BYTE      I2CADR
      000000B4H   SFRSYM    DATA     BYTE      I2CCCR
      000000B8H   SFRSYM    DATA     BYTE      IP
      000000B7H   SFRSYM    DATA     BYTE      I2CFLG
      000000B5H   SFRSYM    DATA     BYTE      I2CDAT
      000000EDH   SFRSYM    DATA     BYTE      RTMSS
      000000D0H.7 SFRSYM    DATA     BIT       CY
      000000BBH   SFRSYM    DATA     BYTE      ADCFGH
      000000DCH   SFRSYM    DATA     BYTE      PWMCMAX
      000000B1H   SFRSYM    DATA     BYTE      I2CCON
      000000D1H   SFRSYM    DATA     BYTE      PWMDIVH
      000000BAH   SFRSYM    DATA     BYTE      ADCFGL
      00000081H   SFRSYM    DATA     BYTE      SP
      000000F9H   SFRSYM    DATA     BYTE      EPIE
      000000D0H.2 SFRSYM    DATA     BIT       OV
      000000FAH   SFRSYM    DATA     BYTE      EPIF
      000000DFH   SFRSYM    DATA     BYTE      PWMDIVL
      000000B6H   SFRSYM    DATA     BYTE      I2CSTA
      000000E8H   SFRSYM    DATA     BYTE      EXIE
      000000D3H   SFRSYM    DATA     BYTE      PWMDUTH
      000000C7H   SFRSYM    DATA     BYTE      TKIF
      0000008FH   SFRSYM    DATA     BYTE      IT0CON
      00000080H.0 SFRSYM    DATA     BIT       P00
      000000ECH   SFRSYM    DATA     BYTE      RTAH
      000000D2H   SFRSYM    DATA     BYTE      PWMDUTL
      0000008EH   SFRSYM    DATA     BYTE      IT1CON
      00000090H.0 SFRSYM    DATA     BIT       P10
      00000080H.1 SFRSYM    DATA     BIT       P01
      0000009DH   SFRSYM    DATA     BYTE      S1RELH
      00000087H   SFRSYM    DATA     BYTE      PCON
      000000A0H.0 SFRSYM    DATA     BIT       P20
LX51 LINKER/LOCATER V4.66.97.0                                                        04/10/2021  13:15:07  PAGE 48


      00000090H.1 SFRSYM    DATA     BIT       P11
      00000080H.2 SFRSYM    DATA     BIT       P02
      000000E8H.0 SFRSYM    DATA     BIT       INT2EN
      000000F4H   SFRSYM    DATA     BYTE      RTCH
      000000A4H   SFRSYM    DATA     BYTE      S2RELH
      000000B0H.0 SFRSYM    DATA     BIT       P30
      000000A0H.1 SFRSYM    DATA     BIT       P21
      00000090H.2 SFRSYM    DATA     BIT       P12
      00000080H.3 SFRSYM    DATA     BIT       P03
      000000E8H.1 SFRSYM    DATA     BIT       INT3EN
      000000C0H.0 SFRSYM    DATA     BIT       P40
      000000B0H.1 SFRSYM    DATA     BIT       P31
      000000A0H.2 SFRSYM    DATA     BIT       P22
      00000090H.3 SFRSYM    DATA     BIT       P13
      00000080H.4 SFRSYM    DATA     BIT       P04
      000000E8H.2 SFRSYM    DATA     BIT       INT4EN
      000000D8H.0 SFRSYM    DATA     BIT       P50
      000000C0H.1 SFRSYM    DATA     BIT       P41
      000000B0H.2 SFRSYM    DATA     BIT       P32
      000000A0H.3 SFRSYM    DATA     BIT       P23
      00000090H.4 SFRSYM    DATA     BIT       P14
      00000080H.5 SFRSYM    DATA     BIT       P05
      000000E8H.3 SFRSYM    DATA     BIT       INT5EN
      000000EBH   SFRSYM    DATA     BYTE      RTAM
      0000009CH   SFRSYM    DATA     BYTE      S1RELL
      00000089H   SFRSYM    DATA     BYTE      TMOD
      00000088H   SFRSYM    DATA     BYTE      TCON
      000000D8H.1 SFRSYM    DATA     BIT       P51
      000000C0H.2 SFRSYM    DATA     BIT       P42
      000000B0H.3 SFRSYM    DATA     BIT       P33
      000000A0H.4 SFRSYM    DATA     BIT       P24
      00000090H.5 SFRSYM    DATA     BIT       P15
      00000080H.6 SFRSYM    DATA     BIT       P06
      000000E8H.4 SFRSYM    DATA     BIT       INT6EN
      000000A3H   SFRSYM    DATA     BYTE      S2RELL
      000000D8H.2 SFRSYM    DATA     BIT       P52
      000000C0H.3 SFRSYM    DATA     BIT       P43
      000000B0H.4 SFRSYM    DATA     BIT       P34
      000000A0H.5 SFRSYM    DATA     BIT       P25
      00000090H.6 SFRSYM    DATA     BIT       P16
      00000080H.7 SFRSYM    DATA     BIT       P07
      000000E8H.5 SFRSYM    DATA     BIT       INT7EN
      000000C8H.2 SFRSYM    DATA     BIT       UCKS
      000000F8H   SFRSYM    DATA     BYTE      EXIP
      000000F3H   SFRSYM    DATA     BYTE      RTCM
      000000D8H.3 SFRSYM    DATA     BIT       P53
      000000C0H.4 SFRSYM    DATA     BIT       P44
      000000B0H.5 SFRSYM    DATA     BIT       P35
      000000A0H.6 SFRSYM    DATA     BIT       P26
      00000090H.7 SFRSYM    DATA     BIT       P17
      000000E8H.6 SFRSYM    DATA     BIT       INT8EN
      000000D8H.4 SFRSYM    DATA     BIT       P54
      000000C0H.5 SFRSYM    DATA     BIT       P45
      000000B0H.6 SFRSYM    DATA     BIT       P36
      000000A0H.7 SFRSYM    DATA     BIT       P27
      000000E8H.7 SFRSYM    DATA     BIT       INT9EN
      000000D8H.5 SFRSYM    DATA     BIT       P55
      000000C0H.6 SFRSYM    DATA     BIT       P46
      000000B0H.7 SFRSYM    DATA     BIT       P37
      000000D8H.6 SFRSYM    DATA     BIT       P56
      000000C0H.7 SFRSYM    DATA     BIT       P47
      000000EAH   SFRSYM    DATA     BYTE      RTAS
      000000AFH   SFRSYM    DATA     BYTE      HVTH
      00000095H   SFRSYM    DATA     BYTE      RCTAGH
      000000D8H.7 SFRSYM    DATA     BIT       P57
LX51 LINKER/LOCATER V4.66.97.0                                                        04/10/2021  13:15:07  PAGE 49


      000000F2H   SFRSYM    DATA     BYTE      RTCS
      00000088H.1 SFRSYM    DATA     BIT       IE0
      00000088H.3 SFRSYM    DATA     BIT       IE1
      00000094H   SFRSYM    DATA     BYTE      RCTAGL
      000000F0H   SFRSYM    DATA     BYTE      B
      000000E7H   SFRSYM    DATA     BYTE      MDUDAT
      000000DEH   SFRSYM    DATA     BYTE      PWMCFG
      000000D4H   SFRSYM    DATA     BYTE      PWMAIF
      000000E0H   SFRSYM    DATA     BYTE      ACC
      000000D5H   SFRSYM    DATA     BYTE      PWMBIF
      0000009FH   SFRSYM    DATA     BYTE      RCMSHH
      000000A8H.4 SFRSYM    DATA     BIT       ES0
      000000EFH   SFRSYM    DATA     BYTE      LVDCON
      000000E6H   SFRSYM    DATA     BYTE      MDUCON
      000000D6H   SFRSYM    DATA     BYTE      PWMCIF
      000000A8H.1 SFRSYM    DATA     BIT       ET0
      000000A8H.6 SFRSYM    DATA     BIT       ES1
      000000D7H   SFRSYM    DATA     BYTE      PWMDIF
      000000A8H.3 SFRSYM    DATA     BIT       ET1
      00000088H.5 SFRSYM    DATA     BIT       TF0
      000000FDH   SFRSYM    DATA     BYTE      IDLSTH
      000000AEH   SFRSYM    DATA     BYTE      PLLCON
      000000A8H.5 SFRSYM    DATA     BIT       ET2
      00000098H.0 SFRSYM    DATA     BIT       RI0
      00000088H.7 SFRSYM    DATA     BIT       TF1
      0000009EH   SFRSYM    DATA     BYTE      RCMSHL
      00000097H   SFRSYM    DATA     BYTE      RCMSLH
      000000C8H.7 SFRSYM    DATA     BIT       TF2
      00000098H.2 SFRSYM    DATA     BIT       RB8
      0000008CH   SFRSYM    DATA     BYTE      TH0
      000000A8H.0 SFRSYM    DATA     BIT       EX0
      00000098H.1 SFRSYM    DATA     BIT       TI0
      00000088H.0 SFRSYM    DATA     BIT       IT0
      0000008DH   SFRSYM    DATA     BYTE      TH1
      000000A8H.2 SFRSYM    DATA     BIT       EX1
      00000098H.3 SFRSYM    DATA     BIT       TB8
      00000088H.2 SFRSYM    DATA     BIT       IT1
      000000FCH   SFRSYM    DATA     BYTE      IDLSTL
      000000CDH   SFRSYM    DATA     BYTE      TH2
      000000D0H.0 SFRSYM    DATA     BIT       P
      00000096H   SFRSYM    DATA     BYTE      RCMSLL
      00000098H.7 SFRSYM    DATA     BIT       SM0
      0000008AH   SFRSYM    DATA     BYTE      TL0
      00000098H.6 SFRSYM    DATA     BIT       SM1
      000000E5H   SFRSYM    DATA     BYTE      LXDIVH
      0000008BH   SFRSYM    DATA     BYTE      TL1
      00000098H.5 SFRSYM    DATA     BIT       SM2
      000000CCH   SFRSYM    DATA     BYTE      TL2
      000000B8H.4 SFRSYM    DATA     BIT       PS0
      000000B8H.1 SFRSYM    DATA     BIT       PT0
      000000B8H.6 SFRSYM    DATA     BIT       PS1
      000000B8H.3 SFRSYM    DATA     BIT       PT1
      000000D0H.3 SFRSYM    DATA     BIT       RS0
      000000E4H   SFRSYM    DATA     BYTE      LXDIVL
      000000BDH   SFRSYM    DATA     BYTE      ADCDH
      000000B8H.5 SFRSYM    DATA     BIT       PT2
      00000088H.4 SFRSYM    DATA     BIT       TR0
      000000D0H.4 SFRSYM    DATA     BIT       RS1
      000000DDH   SFRSYM    DATA     BYTE      PWMCON
      00000088H.6 SFRSYM    DATA     BIT       TR1
      000000ADH   SFRSYM    DATA     BYTE      WDVTHH
      000000C8H.6 SFRSYM    DATA     BIT       TR2
      000000B8H.0 SFRSYM    DATA     BIT       PX0
      000000B8H.2 SFRSYM    DATA     BIT       PX1
      000000BCH   SFRSYM    DATA     BYTE      ADCDL
LX51 LINKER/LOCATER V4.66.97.0                                                        04/10/2021  13:15:07  PAGE 50


      000000ACH   SFRSYM    DATA     BYTE      WDVTHL
      000000DBH   SFRSYM    DATA     BYTE      PWMUPD
      00000099H   SFRSYM    DATA     BYTE      S0BUF
      0000009BH   SFRSYM    DATA     BYTE      S1BUF
      000000A2H   SFRSYM    DATA     BYTE      S2BUF
      00000098H   SFRSYM    DATA     BYTE      S0CON
      00000098H.4 SFRSYM    DATA     BIT       REN
      0000009AH   SFRSYM    DATA     BYTE      S1CON
      000000B9H   SFRSYM    DATA     BYTE      ADCON
      000000A1H   SFRSYM    DATA     BYTE      S2CON
      000000D0H.1 SFRSYM    DATA     BIT       DPS
      000000C9H   SFRSYM    DATA     BYTE      T2MOD
      000000C8H   SFRSYM    DATA     BYTE      T2CON
      000000FFH   SFRSYM    DATA     BYTE      STPSTH
      000000BFH   SFRSYM    DATA     BYTE      CKMIF
      000000FEH   SFRSYM    DATA     BYTE      STPSTL
      000000C2H   SFRSYM    DATA     BYTE      TKCFG
      00000093H   SFRSYM    DATA     BYTE      VCKDH
      000000D0H.5 SFRSYM    DATA     BIT       F0
      000000E2H   SFRSYM    DATA     BYTE      LXCFG
      000000ABH   SFRSYM    DATA     BYTE      WDFLG
      00000092H   SFRSYM    DATA     BYTE      VCKDL
      000000FBH   SFRSYM    DATA     BYTE      EPCON
      000000F6H   SFRSYM    DATA     BYTE      RTCDH
      000000C6H   SFRSYM    DATA     BYTE      ATKMH
      00000091H   SFRSYM    DATA     BYTE      RCCON
      000000F7H   SFRSYM    DATA     BYTE      INDEX
      000000EEH   SFRSYM    DATA     BYTE      RTCIF
      000000BEH   SFRSYM    DATA     BYTE      CKMON
      000000F5H   SFRSYM    DATA     BYTE      RTCDL
      000000D0H   SFRSYM    DATA     BYTE      PSW
      000000C5H   SFRSYM    DATA     BYTE      ATKML
      000000AAH   SFRSYM    DATA     BYTE      WDCON
      000000A6H   SFRSYM    DATA     BYTE      SPDAT

      010037F8H   BLOCK     CODE     ---       LVL=0
      00000007H   SYMBOL    DATA     BYTE      Multiple
      010037F8H   LINE      CODE     ---       #68
      010037F8H   LINE      CODE     ---       #69
      010037F8H   LINE      CODE     ---       #70
      0100380DH   LINE      CODE     ---       #72
      01003819H   LINE      CODE     ---       #73
      0100381EH   LINE      CODE     ---       #74
      01003827H   LINE      CODE     ---       #75
      ---         BLOCKEND  ---      ---       LVL=0

      ---         MODULE    ---      ---       UART
      020001DFH   PUBLIC    XDATA    ---       uart0_send
      020001CBH   PUBLIC    XDATA    ---       uart0_tx_buf
      02000167H   PUBLIC    XDATA    ---       uart0_rx_buf
      00000021H.4 PUBLIC    BIT      BIT       uart0_tx_flag
      02000165H   PUBLIC    XDATA    ---       uart0_rev
      02000001H   PUBLIC    XDATA    BYTE      ?_uart_printf?BYTE
      01002E9AH   PUBLIC    CODE     ---       _uart_printf
      01003762H   PUBLIC    CODE     ---       _UartPutStr
      01002CA2H   PUBLIC    CODE     ---       UART0_ISR
      01002A89H   PUBLIC    CODE     ---       _Uart0_PutChar
      01002D73H   PUBLIC    CODE     ---       _Uart0_Initial
      000000E3H   SFRSYM    DATA     BYTE      LXDAT
      000000C4H   SFRSYM    DATA     BYTE      TKCHS
      00000080H   SFRSYM    DATA     BYTE      P0
      000000C1H   SFRSYM    DATA     BYTE      TKCON
      00000090H   SFRSYM    DATA     BYTE      P1
      000000A0H   SFRSYM    DATA     BYTE      P2
      000000B0H   SFRSYM    DATA     BYTE      P3
LX51 LINKER/LOCATER V4.66.97.0                                                        04/10/2021  13:15:07  PAGE 51


      000000D0H.6 SFRSYM    DATA     BIT       AC
      000000C0H   SFRSYM    DATA     BYTE      P4
      000000D8H   SFRSYM    DATA     BYTE      P5
      000000A5H   SFRSYM    DATA     BYTE      SPCON
      000000A8H.7 SFRSYM    DATA     BIT       EA
      000000E1H   SFRSYM    DATA     BYTE      LXCON
      000000A9H   SFRSYM    DATA     BYTE      P6
      000000C8H.0 SFRSYM    DATA     BIT       T2P0
      000000D9H   SFRSYM    DATA     BYTE      P7
      000000C8H.1 SFRSYM    DATA     BIT       T2P1
      000000F1H   SFRSYM    DATA     BYTE      RTCON
      000000C8H.4 SFRSYM    DATA     BIT       T2R0
      000000DAH   SFRSYM    DATA     BYTE      PWMEN
      000000CFH   SFRSYM    DATA     BYTE      TKMSH
      00000086H   SFRSYM    DATA     BYTE      PWCON
      000000C8H.5 SFRSYM    DATA     BIT       T2R1
      000000CEH   SFRSYM    DATA     BYTE      TKMSL
      000000A7H   SFRSYM    DATA     BYTE      SPSTA
      00000083H   SFRSYM    DATA     BYTE      DP0H
      000000A8H   SFRSYM    DATA     BYTE      IE
      00000085H   SFRSYM    DATA     BYTE      DP1H
      000000E9H   SFRSYM    DATA     BYTE      RTCSS
      00000082H   SFRSYM    DATA     BYTE      DP0L
      000000CBH   SFRSYM    DATA     BYTE      T2CH
      000000B3H   SFRSYM    DATA     BYTE      I2CADM
      00000084H   SFRSYM    DATA     BYTE      DP1L
      000000C8H.3 SFRSYM    DATA     BIT       T2IE
      000000C3H   SFRSYM    DATA     BYTE      TKMTS
      000000CAH   SFRSYM    DATA     BYTE      T2CL
      000000B2H   SFRSYM    DATA     BYTE      I2CADR
      000000B4H   SFRSYM    DATA     BYTE      I2CCCR
      000000B8H   SFRSYM    DATA     BYTE      IP
      000000B7H   SFRSYM    DATA     BYTE      I2CFLG
      000000B5H   SFRSYM    DATA     BYTE      I2CDAT
      000000EDH   SFRSYM    DATA     BYTE      RTMSS
      000000D0H.7 SFRSYM    DATA     BIT       CY
      000000BBH   SFRSYM    DATA     BYTE      ADCFGH
      000000DCH   SFRSYM    DATA     BYTE      PWMCMAX
      000000B1H   SFRSYM    DATA     BYTE      I2CCON
      000000D1H   SFRSYM    DATA     BYTE      PWMDIVH
      000000BAH   SFRSYM    DATA     BYTE      ADCFGL
      00000081H   SFRSYM    DATA     BYTE      SP
      000000F9H   SFRSYM    DATA     BYTE      EPIE
      000000D0H.2 SFRSYM    DATA     BIT       OV
      000000FAH   SFRSYM    DATA     BYTE      EPIF
      000000DFH   SFRSYM    DATA     BYTE      PWMDIVL
      000000B6H   SFRSYM    DATA     BYTE      I2CSTA
      000000E8H   SFRSYM    DATA     BYTE      EXIE
      000000D3H   SFRSYM    DATA     BYTE      PWMDUTH
      000000C7H   SFRSYM    DATA     BYTE      TKIF
      0000008FH   SFRSYM    DATA     BYTE      IT0CON
      00000080H.0 SFRSYM    DATA     BIT       P00
      000000ECH   SFRSYM    DATA     BYTE      RTAH
      000000D2H   SFRSYM    DATA     BYTE      PWMDUTL
      0000008EH   SFRSYM    DATA     BYTE      IT1CON
      00000090H.0 SFRSYM    DATA     BIT       P10
      00000080H.1 SFRSYM    DATA     BIT       P01
      0000009DH   SFRSYM    DATA     BYTE      S1RELH
      00000087H   SFRSYM    DATA     BYTE      PCON
      000000A0H.0 SFRSYM    DATA     BIT       P20
      00000090H.1 SFRSYM    DATA     BIT       P11
      00000080H.2 SFRSYM    DATA     BIT       P02
      000000E8H.0 SFRSYM    DATA     BIT       INT2EN
      000000F4H   SFRSYM    DATA     BYTE      RTCH
      000000A4H   SFRSYM    DATA     BYTE      S2RELH
LX51 LINKER/LOCATER V4.66.97.0                                                        04/10/2021  13:15:07  PAGE 52


      000000B0H.0 SFRSYM    DATA     BIT       P30
      000000A0H.1 SFRSYM    DATA     BIT       P21
      00000090H.2 SFRSYM    DATA     BIT       P12
      00000080H.3 SFRSYM    DATA     BIT       P03
      000000E8H.1 SFRSYM    DATA     BIT       INT3EN
      000000C0H.0 SFRSYM    DATA     BIT       P40
      000000B0H.1 SFRSYM    DATA     BIT       P31
      000000A0H.2 SFRSYM    DATA     BIT       P22
      00000090H.3 SFRSYM    DATA     BIT       P13
      00000080H.4 SFRSYM    DATA     BIT       P04
      000000E8H.2 SFRSYM    DATA     BIT       INT4EN
      000000D8H.0 SFRSYM    DATA     BIT       P50
      000000C0H.1 SFRSYM    DATA     BIT       P41
      000000B0H.2 SFRSYM    DATA     BIT       P32
      000000A0H.3 SFRSYM    DATA     BIT       P23
      00000090H.4 SFRSYM    DATA     BIT       P14
      00000080H.5 SFRSYM    DATA     BIT       P05
      000000E8H.3 SFRSYM    DATA     BIT       INT5EN
      000000EBH   SFRSYM    DATA     BYTE      RTAM
      0000009CH   SFRSYM    DATA     BYTE      S1RELL
      00000089H   SFRSYM    DATA     BYTE      TMOD
      00000088H   SFRSYM    DATA     BYTE      TCON
      000000D8H.1 SFRSYM    DATA     BIT       P51
      000000C0H.2 SFRSYM    DATA     BIT       P42
      000000B0H.3 SFRSYM    DATA     BIT       P33
      000000A0H.4 SFRSYM    DATA     BIT       P24
      00000090H.5 SFRSYM    DATA     BIT       P15
      00000080H.6 SFRSYM    DATA     BIT       P06
      000000E8H.4 SFRSYM    DATA     BIT       INT6EN
      000000A3H   SFRSYM    DATA     BYTE      S2RELL
      000000D8H.2 SFRSYM    DATA     BIT       P52
      000000C0H.3 SFRSYM    DATA     BIT       P43
      000000B0H.4 SFRSYM    DATA     BIT       P34
      000000A0H.5 SFRSYM    DATA     BIT       P25
      00000090H.6 SFRSYM    DATA     BIT       P16
      00000080H.7 SFRSYM    DATA     BIT       P07
      000000E8H.5 SFRSYM    DATA     BIT       INT7EN
      000000C8H.2 SFRSYM    DATA     BIT       UCKS
      000000F8H   SFRSYM    DATA     BYTE      EXIP
      000000F3H   SFRSYM    DATA     BYTE      RTCM
      000000D8H.3 SFRSYM    DATA     BIT       P53
      000000C0H.4 SFRSYM    DATA     BIT       P44
      000000B0H.5 SFRSYM    DATA     BIT       P35
      000000A0H.6 SFRSYM    DATA     BIT       P26
      00000090H.7 SFRSYM    DATA     BIT       P17
      000000E8H.6 SFRSYM    DATA     BIT       INT8EN
      000000D8H.4 SFRSYM    DATA     BIT       P54
      000000C0H.5 SFRSYM    DATA     BIT       P45
      000000B0H.6 SFRSYM    DATA     BIT       P36
      000000A0H.7 SFRSYM    DATA     BIT       P27
      000000E8H.7 SFRSYM    DATA     BIT       INT9EN
      000000D8H.5 SFRSYM    DATA     BIT       P55
      000000C0H.6 SFRSYM    DATA     BIT       P46
      000000B0H.7 SFRSYM    DATA     BIT       P37
      000000D8H.6 SFRSYM    DATA     BIT       P56
      000000C0H.7 SFRSYM    DATA     BIT       P47
      000000EAH   SFRSYM    DATA     BYTE      RTAS
      000000AFH   SFRSYM    DATA     BYTE      HVTH
      00000095H   SFRSYM    DATA     BYTE      RCTAGH
      000000D8H.7 SFRSYM    DATA     BIT       P57
      000000F2H   SFRSYM    DATA     BYTE      RTCS
      00000088H.1 SFRSYM    DATA     BIT       IE0
      00000088H.3 SFRSYM    DATA     BIT       IE1
      00000094H   SFRSYM    DATA     BYTE      RCTAGL
      000000F0H   SFRSYM    DATA     BYTE      B
LX51 LINKER/LOCATER V4.66.97.0                                                        04/10/2021  13:15:07  PAGE 53


      000000E7H   SFRSYM    DATA     BYTE      MDUDAT
      000000DEH   SFRSYM    DATA     BYTE      PWMCFG
      000000D4H   SFRSYM    DATA     BYTE      PWMAIF
      000000E0H   SFRSYM    DATA     BYTE      ACC
      000000D5H   SFRSYM    DATA     BYTE      PWMBIF
      0000009FH   SFRSYM    DATA     BYTE      RCMSHH
      000000A8H.4 SFRSYM    DATA     BIT       ES0
      000000EFH   SFRSYM    DATA     BYTE      LVDCON
      000000E6H   SFRSYM    DATA     BYTE      MDUCON
      000000D6H   SFRSYM    DATA     BYTE      PWMCIF
      000000A8H.1 SFRSYM    DATA     BIT       ET0
      000000A8H.6 SFRSYM    DATA     BIT       ES1
      000000D7H   SFRSYM    DATA     BYTE      PWMDIF
      000000A8H.3 SFRSYM    DATA     BIT       ET1
      00000088H.5 SFRSYM    DATA     BIT       TF0
      000000FDH   SFRSYM    DATA     BYTE      IDLSTH
      000000AEH   SFRSYM    DATA     BYTE      PLLCON
      000000A8H.5 SFRSYM    DATA     BIT       ET2
      00000098H.0 SFRSYM    DATA     BIT       RI0
      00000088H.7 SFRSYM    DATA     BIT       TF1
      0000009EH   SFRSYM    DATA     BYTE      RCMSHL
      00000097H   SFRSYM    DATA     BYTE      RCMSLH
      000000C8H.7 SFRSYM    DATA     BIT       TF2
      00000098H.2 SFRSYM    DATA     BIT       RB8
      0000008CH   SFRSYM    DATA     BYTE      TH0
      000000A8H.0 SFRSYM    DATA     BIT       EX0
      00000098H.1 SFRSYM    DATA     BIT       TI0
      00000088H.0 SFRSYM    DATA     BIT       IT0
      0000008DH   SFRSYM    DATA     BYTE      TH1
      000000A8H.2 SFRSYM    DATA     BIT       EX1
      00000098H.3 SFRSYM    DATA     BIT       TB8
      00000088H.2 SFRSYM    DATA     BIT       IT1
      000000FCH   SFRSYM    DATA     BYTE      IDLSTL
      000000CDH   SFRSYM    DATA     BYTE      TH2
      000000D0H.0 SFRSYM    DATA     BIT       P
      00000096H   SFRSYM    DATA     BYTE      RCMSLL
      00000098H.7 SFRSYM    DATA     BIT       SM0
      0000008AH   SFRSYM    DATA     BYTE      TL0
      00000098H.6 SFRSYM    DATA     BIT       SM1
      000000E5H   SFRSYM    DATA     BYTE      LXDIVH
      0000008BH   SFRSYM    DATA     BYTE      TL1
      00000098H.5 SFRSYM    DATA     BIT       SM2
      000000CCH   SFRSYM    DATA     BYTE      TL2
      000000B8H.4 SFRSYM    DATA     BIT       PS0
      000000B8H.1 SFRSYM    DATA     BIT       PT0
      000000B8H.6 SFRSYM    DATA     BIT       PS1
      000000B8H.3 SFRSYM    DATA     BIT       PT1
      000000D0H.3 SFRSYM    DATA     BIT       RS0
      000000E4H   SFRSYM    DATA     BYTE      LXDIVL
      000000BDH   SFRSYM    DATA     BYTE      ADCDH
      000000B8H.5 SFRSYM    DATA     BIT       PT2
      00000088H.4 SFRSYM    DATA     BIT       TR0
      000000D0H.4 SFRSYM    DATA     BIT       RS1
      000000DDH   SFRSYM    DATA     BYTE      PWMCON
      00000088H.6 SFRSYM    DATA     BIT       TR1
      000000ADH   SFRSYM    DATA     BYTE      WDVTHH
      000000C8H.6 SFRSYM    DATA     BIT       TR2
      000000B8H.0 SFRSYM    DATA     BIT       PX0
      000000B8H.2 SFRSYM    DATA     BIT       PX1
      000000BCH   SFRSYM    DATA     BYTE      ADCDL
      000000ACH   SFRSYM    DATA     BYTE      WDVTHL
      000000DBH   SFRSYM    DATA     BYTE      PWMUPD
      00000099H   SFRSYM    DATA     BYTE      S0BUF
      0000009BH   SFRSYM    DATA     BYTE      S1BUF
      000000A2H   SFRSYM    DATA     BYTE      S2BUF
LX51 LINKER/LOCATER V4.66.97.0                                                        04/10/2021  13:15:07  PAGE 54


      00000098H   SFRSYM    DATA     BYTE      S0CON
      00000098H.4 SFRSYM    DATA     BIT       REN
      0000009AH   SFRSYM    DATA     BYTE      S1CON
      000000B9H   SFRSYM    DATA     BYTE      ADCON
      000000A1H   SFRSYM    DATA     BYTE      S2CON
      000000D0H.1 SFRSYM    DATA     BIT       DPS
      000000C9H   SFRSYM    DATA     BYTE      T2MOD
      000000C8H   SFRSYM    DATA     BYTE      T2CON
      000000FFH   SFRSYM    DATA     BYTE      STPSTH
      000000BFH   SFRSYM    DATA     BYTE      CKMIF
      000000FEH   SFRSYM    DATA     BYTE      STPSTL
      000000C2H   SFRSYM    DATA     BYTE      TKCFG
      00000093H   SFRSYM    DATA     BYTE      VCKDH
      000000D0H.5 SFRSYM    DATA     BIT       F0
      000000E2H   SFRSYM    DATA     BYTE      LXCFG
      000000ABH   SFRSYM    DATA     BYTE      WDFLG
      00000092H   SFRSYM    DATA     BYTE      VCKDL
      000000FBH   SFRSYM    DATA     BYTE      EPCON
      000000F6H   SFRSYM    DATA     BYTE      RTCDH
      000000C6H   SFRSYM    DATA     BYTE      ATKMH
      00000091H   SFRSYM    DATA     BYTE      RCCON
      000000F7H   SFRSYM    DATA     BYTE      INDEX
      000000EEH   SFRSYM    DATA     BYTE      RTCIF
      000000BEH   SFRSYM    DATA     BYTE      CKMON
      000000F5H   SFRSYM    DATA     BYTE      RTCDL
      000000D0H   SFRSYM    DATA     BYTE      PSW
      000000C5H   SFRSYM    DATA     BYTE      ATKML
      000000AAH   SFRSYM    DATA     BYTE      WDCON
      000000A6H   SFRSYM    DATA     BYTE      SPDAT

      01002D73H   BLOCK     CODE     ---       LVL=0
      02000000H   SYMBOL    XDATA    DWORD     baudrate
      01002D79H   BLOCK     CODE     NEAR LAB  LVL=1
      00000004H   SYMBOL    DATA     WORD      value_temp
      ---         BLOCKEND  ---      ---       LVL=1
      01002D73H   LINE      CODE     ---       #19
      01002D79H   LINE      CODE     ---       #20
      01002D79H   LINE      CODE     ---       #23
      01002D7FH   LINE      CODE     ---       #24
      01002D83H   LINE      CODE     ---       #26
      01002D88H   LINE      CODE     ---       #27
      01002D8AH   LINE      CODE     ---       #28
      01002D8EH   LINE      CODE     ---       #29
      01002D90H   LINE      CODE     ---       #30
      01002D92H   LINE      CODE     ---       #34
      01002DC3H   LINE      CODE     ---       #35
      01002DC6H   LINE      CODE     ---       #36
      01002DC8H   LINE      CODE     ---       #37
      01002DCCH   LINE      CODE     ---       #38
      01002DCEH   LINE      CODE     ---       #39
      01002DD0H   LINE      CODE     ---       #40
      01002DD2H   LINE      CODE     ---       #56
      01002DD5H   LINE      CODE     ---       #57
      01002DD7H   LINE      CODE     ---       #58
      ---         BLOCKEND  ---      ---       LVL=0

      01002A89H   BLOCK     CODE     ---       LVL=0
      00000007H   SYMBOL    DATA     BYTE      bdat
      01002A89H   BLOCK     CODE     NEAR LAB  LVL=1
      00000006H   SYMBOL    DATA     BYTE      free_space
      00000005H   SYMBOL    DATA     BYTE      tail_tmp
      ---         BLOCKEND  ---      ---       LVL=1
      01002A89H   LINE      CODE     ---       #59
      01002A89H   LINE      CODE     ---       #60
      01002A89H   LINE      CODE     ---       #63
LX51 LINKER/LOCATER V4.66.97.0                                                        04/10/2021  13:15:07  PAGE 55


      01002A89H   LINE      CODE     ---       #64
      01002A89H   LINE      CODE     ---       #65
      01002A8EH   LINE      CODE     ---       #66
      01002A97H   LINE      CODE     ---       #67
      01002A97H   LINE      CODE     ---       #68
      01002A9BH   LINE      CODE     ---       #69
      01002A9DH   LINE      CODE     ---       #71
      01002A9DH   LINE      CODE     ---       #72
      01002AAAH   LINE      CODE     ---       #73
      01002AAAH   LINE      CODE     ---       #74
      01002AB4H   LINE      CODE     ---       #75
      01002AB4H   LINE      CODE     ---       #76
      01002AB6H   LINE      CODE     ---       #77
      01002ABCH   LINE      CODE     ---       #78
      01002AC4H   LINE      CODE     ---       #79
      01002AD0H   LINE      CODE     ---       #80
      01002AD3H   LINE      CODE     ---       #81
      01002AD3H   LINE      CODE     ---       #82
      01002AD5H   LINE      CODE     ---       #83
      01002ADBH   LINE      CODE     ---       #84
      01002AE3H   LINE      CODE     ---       #85
      01002AF0H   LINE      CODE     ---       #86
      01002AF2H   LINE      CODE     ---       #87
      01002AF3H   LINE      CODE     ---       #89
      01002AF3H   LINE      CODE     ---       #90
      01002AF5H   LINE      CODE     ---       #91
      01002AF5H   LINE      CODE     ---       #92
      01002AF5H   LINE      CODE     ---       #93
      01002AF5H   LINE      CODE     ---       #94
      01002AF5H   LINE      CODE     ---       #95
      ---         BLOCKEND  ---      ---       LVL=0

      01002CA2H   BLOCK     CODE     ---       LVL=0
      01002CA2H   LINE      CODE     ---       #96
      01002CB1H   LINE      CODE     ---       #98
      01002CB4H   LINE      CODE     ---       #99
      01002CB4H   LINE      CODE     ---       #100
      01002CB6H   LINE      CODE     ---       #101
      01002CBCH   LINE      CODE     ---       #102
      01002CC4H   LINE      CODE     ---       #103
      01002CD1H   LINE      CODE     ---       #104
      01002CD1H   LINE      CODE     ---       #105
      01002CD4H   LINE      CODE     ---       #106
      01002CD4H   LINE      CODE     ---       #107
      01002CD6H   LINE      CODE     ---       #108
      01002CE2H   LINE      CODE     ---       #109
      01002CE2H   LINE      CODE     ---       #110
      01002CE6H   LINE      CODE     ---       #111
      01002CEEH   LINE      CODE     ---       #112
      01002CFBH   LINE      CODE     ---       #113
      01002CFDH   LINE      CODE     ---       #115
      01002CFDH   LINE      CODE     ---       #116
      01002CFFH   LINE      CODE     ---       #117
      01002CFFH   LINE      CODE     ---       #118
      01002CFFH   LINE      CODE     ---       #119
      ---         BLOCKEND  ---      ---       LVL=0

      01003762H   BLOCK     CODE     ---       LVL=0
      0200012FH   SYMBOL    XDATA    ---       str
      01003762H   LINE      CODE     ---       #298
      0100376DH   LINE      CODE     ---       #299
      0100376DH   LINE      CODE     ---       #300
      0100377DH   LINE      CODE     ---       #301
      0100377DH   LINE      CODE     ---       #302
      01003792H   LINE      CODE     ---       #303
LX51 LINKER/LOCATER V4.66.97.0                                                        04/10/2021  13:15:07  PAGE 56


      01003794H   LINE      CODE     ---       #304
      ---         BLOCKEND  ---      ---       LVL=0

      01002E9AH   BLOCK     CODE     ---       LVL=0
      02000001H   SYMBOL    XDATA    ---       fmt
      01002EA5H   BLOCK     CODE     NEAR LAB  LVL=1
      02000004H   SYMBOL    XDATA    ---       ellipsis_40
      0200002CH   SYMBOL    XDATA    ---       ap
      0200002FH   SYMBOL    XDATA    ---       string
      ---         BLOCKEND  ---      ---       LVL=1
      01002E9AH   LINE      CODE     ---       #305
      01002EA5H   LINE      CODE     ---       #306
      01002EA5H   LINE      CODE     ---       #309
      01002EB3H   LINE      CODE     ---       #310
      01002EE6H   LINE      CODE     ---       #311
      01002EEFH   LINE      CODE     ---       #312
      01002EF8H   LINE      CODE     ---       #313
      ---         BLOCKEND  ---      ---       LVL=0

      ---         MODULE    ---      ---       ADC
      010038D8H   PUBLIC    CODE     ---       _GetChannelAdcValue
      01003C5FH   PUBLIC    CODE     ---       ADC_StartConversion
      01000003H   PUBLIC    CODE     ---       _ADC_ConfigChannel
      000000E3H   SFRSYM    DATA     BYTE      LXDAT
      000000C4H   SFRSYM    DATA     BYTE      TKCHS
      00000080H   SFRSYM    DATA     BYTE      P0
      000000C1H   SFRSYM    DATA     BYTE      TKCON
      00000090H   SFRSYM    DATA     BYTE      P1
      000000A0H   SFRSYM    DATA     BYTE      P2
      000000B0H   SFRSYM    DATA     BYTE      P3
      000000D0H.6 SFRSYM    DATA     BIT       AC
      000000C0H   SFRSYM    DATA     BYTE      P4
      000000D8H   SFRSYM    DATA     BYTE      P5
      000000A5H   SFRSYM    DATA     BYTE      SPCON
      000000A8H.7 SFRSYM    DATA     BIT       EA
      000000E1H   SFRSYM    DATA     BYTE      LXCON
      000000A9H   SFRSYM    DATA     BYTE      P6
      000000C8H.0 SFRSYM    DATA     BIT       T2P0
      000000D9H   SFRSYM    DATA     BYTE      P7
      000000C8H.1 SFRSYM    DATA     BIT       T2P1
      000000F1H   SFRSYM    DATA     BYTE      RTCON
      000000C8H.4 SFRSYM    DATA     BIT       T2R0
      000000DAH   SFRSYM    DATA     BYTE      PWMEN
      000000CFH   SFRSYM    DATA     BYTE      TKMSH
      00000086H   SFRSYM    DATA     BYTE      PWCON
      000000C8H.5 SFRSYM    DATA     BIT       T2R1
      000000CEH   SFRSYM    DATA     BYTE      TKMSL
      000000A7H   SFRSYM    DATA     BYTE      SPSTA
      00000083H   SFRSYM    DATA     BYTE      DP0H
      000000A8H   SFRSYM    DATA     BYTE      IE
      00000085H   SFRSYM    DATA     BYTE      DP1H
      000000E9H   SFRSYM    DATA     BYTE      RTCSS
      00000082H   SFRSYM    DATA     BYTE      DP0L
      000000CBH   SFRSYM    DATA     BYTE      T2CH
      000000B3H   SFRSYM    DATA     BYTE      I2CADM
      00000084H   SFRSYM    DATA     BYTE      DP1L
      000000C8H.3 SFRSYM    DATA     BIT       T2IE
      000000C3H   SFRSYM    DATA     BYTE      TKMTS
      000000CAH   SFRSYM    DATA     BYTE      T2CL
      000000B2H   SFRSYM    DATA     BYTE      I2CADR
      000000B4H   SFRSYM    DATA     BYTE      I2CCCR
      000000B8H   SFRSYM    DATA     BYTE      IP
      000000B7H   SFRSYM    DATA     BYTE      I2CFLG
      000000B5H   SFRSYM    DATA     BYTE      I2CDAT
      000000EDH   SFRSYM    DATA     BYTE      RTMSS
LX51 LINKER/LOCATER V4.66.97.0                                                        04/10/2021  13:15:07  PAGE 57


      000000D0H.7 SFRSYM    DATA     BIT       CY
      000000BBH   SFRSYM    DATA     BYTE      ADCFGH
      000000DCH   SFRSYM    DATA     BYTE      PWMCMAX
      000000B1H   SFRSYM    DATA     BYTE      I2CCON
      000000D1H   SFRSYM    DATA     BYTE      PWMDIVH
      000000BAH   SFRSYM    DATA     BYTE      ADCFGL
      00000081H   SFRSYM    DATA     BYTE      SP
      000000F9H   SFRSYM    DATA     BYTE      EPIE
      000000D0H.2 SFRSYM    DATA     BIT       OV
      000000FAH   SFRSYM    DATA     BYTE      EPIF
      000000DFH   SFRSYM    DATA     BYTE      PWMDIVL
      000000B6H   SFRSYM    DATA     BYTE      I2CSTA
      000000E8H   SFRSYM    DATA     BYTE      EXIE
      000000D3H   SFRSYM    DATA     BYTE      PWMDUTH
      000000C7H   SFRSYM    DATA     BYTE      TKIF
      0000008FH   SFRSYM    DATA     BYTE      IT0CON
      00000080H.0 SFRSYM    DATA     BIT       P00
      000000ECH   SFRSYM    DATA     BYTE      RTAH
      000000D2H   SFRSYM    DATA     BYTE      PWMDUTL
      0000008EH   SFRSYM    DATA     BYTE      IT1CON
      00000090H.0 SFRSYM    DATA     BIT       P10
      00000080H.1 SFRSYM    DATA     BIT       P01
      0000009DH   SFRSYM    DATA     BYTE      S1RELH
      00000087H   SFRSYM    DATA     BYTE      PCON
      000000A0H.0 SFRSYM    DATA     BIT       P20
      00000090H.1 SFRSYM    DATA     BIT       P11
      00000080H.2 SFRSYM    DATA     BIT       P02
      000000E8H.0 SFRSYM    DATA     BIT       INT2EN
      000000F4H   SFRSYM    DATA     BYTE      RTCH
      000000A4H   SFRSYM    DATA     BYTE      S2RELH
      000000B0H.0 SFRSYM    DATA     BIT       P30
      000000A0H.1 SFRSYM    DATA     BIT       P21
      00000090H.2 SFRSYM    DATA     BIT       P12
      00000080H.3 SFRSYM    DATA     BIT       P03
      000000E8H.1 SFRSYM    DATA     BIT       INT3EN
      000000C0H.0 SFRSYM    DATA     BIT       P40
      000000B0H.1 SFRSYM    DATA     BIT       P31
      000000A0H.2 SFRSYM    DATA     BIT       P22
      00000090H.3 SFRSYM    DATA     BIT       P13
      00000080H.4 SFRSYM    DATA     BIT       P04
      000000E8H.2 SFRSYM    DATA     BIT       INT4EN
      000000D8H.0 SFRSYM    DATA     BIT       P50
      000000C0H.1 SFRSYM    DATA     BIT       P41
      000000B0H.2 SFRSYM    DATA     BIT       P32
      000000A0H.3 SFRSYM    DATA     BIT       P23
      00000090H.4 SFRSYM    DATA     BIT       P14
      00000080H.5 SFRSYM    DATA     BIT       P05
      000000E8H.3 SFRSYM    DATA     BIT       INT5EN
      000000EBH   SFRSYM    DATA     BYTE      RTAM
      0000009CH   SFRSYM    DATA     BYTE      S1RELL
      00000089H   SFRSYM    DATA     BYTE      TMOD
      00000088H   SFRSYM    DATA     BYTE      TCON
      000000D8H.1 SFRSYM    DATA     BIT       P51
      000000C0H.2 SFRSYM    DATA     BIT       P42
      000000B0H.3 SFRSYM    DATA     BIT       P33
      000000A0H.4 SFRSYM    DATA     BIT       P24
      00000090H.5 SFRSYM    DATA     BIT       P15
      00000080H.6 SFRSYM    DATA     BIT       P06
      000000E8H.4 SFRSYM    DATA     BIT       INT6EN
      000000A3H   SFRSYM    DATA     BYTE      S2RELL
      000000D8H.2 SFRSYM    DATA     BIT       P52
      000000C0H.3 SFRSYM    DATA     BIT       P43
      000000B0H.4 SFRSYM    DATA     BIT       P34
      000000A0H.5 SFRSYM    DATA     BIT       P25
      00000090H.6 SFRSYM    DATA     BIT       P16
LX51 LINKER/LOCATER V4.66.97.0                                                        04/10/2021  13:15:07  PAGE 58


      00000080H.7 SFRSYM    DATA     BIT       P07
      000000E8H.5 SFRSYM    DATA     BIT       INT7EN
      000000C8H.2 SFRSYM    DATA     BIT       UCKS
      000000F8H   SFRSYM    DATA     BYTE      EXIP
      000000F3H   SFRSYM    DATA     BYTE      RTCM
      000000D8H.3 SFRSYM    DATA     BIT       P53
      000000C0H.4 SFRSYM    DATA     BIT       P44
      000000B0H.5 SFRSYM    DATA     BIT       P35
      000000A0H.6 SFRSYM    DATA     BIT       P26
      00000090H.7 SFRSYM    DATA     BIT       P17
      000000E8H.6 SFRSYM    DATA     BIT       INT8EN
      000000D8H.4 SFRSYM    DATA     BIT       P54
      000000C0H.5 SFRSYM    DATA     BIT       P45
      000000B0H.6 SFRSYM    DATA     BIT       P36
      000000A0H.7 SFRSYM    DATA     BIT       P27
      000000E8H.7 SFRSYM    DATA     BIT       INT9EN
      000000D8H.5 SFRSYM    DATA     BIT       P55
      000000C0H.6 SFRSYM    DATA     BIT       P46
      000000B0H.7 SFRSYM    DATA     BIT       P37
      000000D8H.6 SFRSYM    DATA     BIT       P56
      000000C0H.7 SFRSYM    DATA     BIT       P47
      000000EAH   SFRSYM    DATA     BYTE      RTAS
      000000AFH   SFRSYM    DATA     BYTE      HVTH
      00000095H   SFRSYM    DATA     BYTE      RCTAGH
      000000D8H.7 SFRSYM    DATA     BIT       P57
      000000F2H   SFRSYM    DATA     BYTE      RTCS
      00000088H.1 SFRSYM    DATA     BIT       IE0
      00000088H.3 SFRSYM    DATA     BIT       IE1
      00000094H   SFRSYM    DATA     BYTE      RCTAGL
      000000F0H   SFRSYM    DATA     BYTE      B
      000000E7H   SFRSYM    DATA     BYTE      MDUDAT
      000000DEH   SFRSYM    DATA     BYTE      PWMCFG
      000000D4H   SFRSYM    DATA     BYTE      PWMAIF
      000000E0H   SFRSYM    DATA     BYTE      ACC
      000000D5H   SFRSYM    DATA     BYTE      PWMBIF
      0000009FH   SFRSYM    DATA     BYTE      RCMSHH
      000000A8H.4 SFRSYM    DATA     BIT       ES0
      000000EFH   SFRSYM    DATA     BYTE      LVDCON
      000000E6H   SFRSYM    DATA     BYTE      MDUCON
      000000D6H   SFRSYM    DATA     BYTE      PWMCIF
      000000A8H.1 SFRSYM    DATA     BIT       ET0
      000000A8H.6 SFRSYM    DATA     BIT       ES1
      000000D7H   SFRSYM    DATA     BYTE      PWMDIF
      000000A8H.3 SFRSYM    DATA     BIT       ET1
      00000088H.5 SFRSYM    DATA     BIT       TF0
      000000FDH   SFRSYM    DATA     BYTE      IDLSTH
      000000AEH   SFRSYM    DATA     BYTE      PLLCON
      000000A8H.5 SFRSYM    DATA     BIT       ET2
      00000098H.0 SFRSYM    DATA     BIT       RI0
      00000088H.7 SFRSYM    DATA     BIT       TF1
      0000009EH   SFRSYM    DATA     BYTE      RCMSHL
      00000097H   SFRSYM    DATA     BYTE      RCMSLH
      000000C8H.7 SFRSYM    DATA     BIT       TF2
      00000098H.2 SFRSYM    DATA     BIT       RB8
      0000008CH   SFRSYM    DATA     BYTE      TH0
      000000A8H.0 SFRSYM    DATA     BIT       EX0
      00000098H.1 SFRSYM    DATA     BIT       TI0
      00000088H.0 SFRSYM    DATA     BIT       IT0
      0000008DH   SFRSYM    DATA     BYTE      TH1
      000000A8H.2 SFRSYM    DATA     BIT       EX1
      00000098H.3 SFRSYM    DATA     BIT       TB8
      00000088H.2 SFRSYM    DATA     BIT       IT1
      000000FCH   SFRSYM    DATA     BYTE      IDLSTL
      000000CDH   SFRSYM    DATA     BYTE      TH2
      000000D0H.0 SFRSYM    DATA     BIT       P
LX51 LINKER/LOCATER V4.66.97.0                                                        04/10/2021  13:15:07  PAGE 59


      00000096H   SFRSYM    DATA     BYTE      RCMSLL
      00000098H.7 SFRSYM    DATA     BIT       SM0
      0000008AH   SFRSYM    DATA     BYTE      TL0
      00000098H.6 SFRSYM    DATA     BIT       SM1
      000000E5H   SFRSYM    DATA     BYTE      LXDIVH
      0000008BH   SFRSYM    DATA     BYTE      TL1
      00000098H.5 SFRSYM    DATA     BIT       SM2
      000000CCH   SFRSYM    DATA     BYTE      TL2
      000000B8H.4 SFRSYM    DATA     BIT       PS0
      000000B8H.1 SFRSYM    DATA     BIT       PT0
      000000B8H.6 SFRSYM    DATA     BIT       PS1
      000000B8H.3 SFRSYM    DATA     BIT       PT1
      000000D0H.3 SFRSYM    DATA     BIT       RS0
      000000E4H   SFRSYM    DATA     BYTE      LXDIVL
      000000BDH   SFRSYM    DATA     BYTE      ADCDH
      000000B8H.5 SFRSYM    DATA     BIT       PT2
      00000088H.4 SFRSYM    DATA     BIT       TR0
      000000D0H.4 SFRSYM    DATA     BIT       RS1
      000000DDH   SFRSYM    DATA     BYTE      PWMCON
      00000088H.6 SFRSYM    DATA     BIT       TR1
      000000ADH   SFRSYM    DATA     BYTE      WDVTHH
      000000C8H.6 SFRSYM    DATA     BIT       TR2
      000000B8H.0 SFRSYM    DATA     BIT       PX0
      000000B8H.2 SFRSYM    DATA     BIT       PX1
      000000BCH   SFRSYM    DATA     BYTE      ADCDL
      000000ACH   SFRSYM    DATA     BYTE      WDVTHL
      000000DBH   SFRSYM    DATA     BYTE      PWMUPD
      00000099H   SFRSYM    DATA     BYTE      S0BUF
      0000009BH   SFRSYM    DATA     BYTE      S1BUF
      000000A2H   SFRSYM    DATA     BYTE      S2BUF
      00000098H   SFRSYM    DATA     BYTE      S0CON
      00000098H.4 SFRSYM    DATA     BIT       REN
      0000009AH   SFRSYM    DATA     BYTE      S1CON
      000000B9H   SFRSYM    DATA     BYTE      ADCON
      000000A1H   SFRSYM    DATA     BYTE      S2CON
      000000D0H.1 SFRSYM    DATA     BIT       DPS
      000000C9H   SFRSYM    DATA     BYTE      T2MOD
      000000C8H   SFRSYM    DATA     BYTE      T2CON
      000000FFH   SFRSYM    DATA     BYTE      STPSTH
      000000BFH   SFRSYM    DATA     BYTE      CKMIF
      000000FEH   SFRSYM    DATA     BYTE      STPSTL
      000000C2H   SFRSYM    DATA     BYTE      TKCFG
      00000093H   SFRSYM    DATA     BYTE      VCKDH
      000000D0H.5 SFRSYM    DATA     BIT       F0
      000000E2H   SFRSYM    DATA     BYTE      LXCFG
      000000ABH   SFRSYM    DATA     BYTE      WDFLG
      00000092H   SFRSYM    DATA     BYTE      VCKDL
      000000FBH   SFRSYM    DATA     BYTE      EPCON
      000000F6H   SFRSYM    DATA     BYTE      RTCDH
      000000C6H   SFRSYM    DATA     BYTE      ATKMH
      00000091H   SFRSYM    DATA     BYTE      RCCON
      000000F7H   SFRSYM    DATA     BYTE      INDEX
      000000EEH   SFRSYM    DATA     BYTE      RTCIF
      000000BEH   SFRSYM    DATA     BYTE      CKMON
      000000F5H   SFRSYM    DATA     BYTE      RTCDL
      000000D0H   SFRSYM    DATA     BYTE      PSW
      000000C5H   SFRSYM    DATA     BYTE      ATKML
      000000AAH   SFRSYM    DATA     BYTE      WDCON
      000000A6H   SFRSYM    DATA     BYTE      SPDAT
      00000007H   SYMBOL    DATA     BYTE      adc_ref
      00000005H   SYMBOL    DATA     BYTE      adc_int
      00000003H   SYMBOL    DATA     BYTE      amp_sw

      01000003H   BLOCK     CODE     ---       LVL=0
      00000007H   SYMBOL    DATA     BYTE      channel
LX51 LINKER/LOCATER V4.66.97.0                                                        04/10/2021  13:15:07  PAGE 60


      01000003H   LINE      CODE     ---       #58
      01000003H   LINE      CODE     ---       #59
      01000003H   LINE      CODE     ---       #60
      0100000AH   LINE      CODE     ---       #61
      ---         BLOCKEND  ---      ---       LVL=0

      01003C5FH   BLOCK     CODE     ---       LVL=0
      01003C5FH   LINE      CODE     ---       #68
      01003C5FH   LINE      CODE     ---       #69
      01003C5FH   LINE      CODE     ---       #70
      01003C62H   LINE      CODE     ---       #71
      ---         BLOCKEND  ---      ---       LVL=0
      00000006H   SYMBOL    DATA     WORD      ADC_Value

      010038D8H   BLOCK     CODE     ---       LVL=0
      00000007H   SYMBOL    DATA     BYTE      channel
      010038D8H   BLOCK     CODE     NEAR LAB  LVL=1
      00000006H   SYMBOL    DATA     WORD      ADC_Value
      ---         BLOCKEND  ---      ---       LVL=1
      010038D8H   LINE      CODE     ---       #96
      010038D8H   LINE      CODE     ---       #97
      010038D8H   LINE      CODE     ---       #99
      010038DBH   LINE      CODE     ---       #100
      010038DEH   LINE      CODE     ---       #101
      010038E3H   LINE      CODE     ---       #102
      010038E6H   LINE      CODE     ---       #103
      010038F3H   LINE      CODE     ---       #104
      01003900H   LINE      CODE     ---       #105
      01003900H   LINE      CODE     ---       #106
      ---         BLOCKEND  ---      ---       LVL=0

      ---         MODULE    ---      ---       MAIN
      02008007H   PUBLIC    XDATA    BYTE      P07F
      0200800EH   PUBLIC    XDATA    BYTE      P16F
      02008015H   PUBLIC    XDATA    BYTE      P25F
      0200801CH   PUBLIC    XDATA    BYTE      P34F
      02008023H   PUBLIC    XDATA    BYTE      P43F
      0200802AH   PUBLIC    XDATA    BYTE      P52F
      02008031H   PUBLIC    XDATA    BYTE      P61F
      02008038H   PUBLIC    XDATA    BYTE      P70F
      0200813FH   PUBLIC    XDATA    BYTE      P37C
      02008146H   PUBLIC    XDATA    BYTE      P46C
      0200814DH   PUBLIC    XDATA    BYTE      P55C
      02008154H   PUBLIC    XDATA    BYTE      P64C
      0200815BH   PUBLIC    XDATA    BYTE      P73C
      02008006H   PUBLIC    XDATA    BYTE      P06F
      0200800DH   PUBLIC    XDATA    BYTE      P15F
      02008014H   PUBLIC    XDATA    BYTE      P24F
      0200801BH   PUBLIC    XDATA    BYTE      P33F
      02008022H   PUBLIC    XDATA    BYTE      P42F
      02008029H   PUBLIC    XDATA    BYTE      P51F
      02008030H   PUBLIC    XDATA    BYTE      P60F
      0200804DH   PUBLIC    XDATA    BYTE      CPSTA
      02008137H   PUBLIC    XDATA    BYTE      P27C
      0200813EH   PUBLIC    XDATA    BYTE      P36C
      02008145H   PUBLIC    XDATA    BYTE      P45C
      0200814CH   PUBLIC    XDATA    BYTE      P54C
      02008153H   PUBLIC    XDATA    BYTE      P63C
      0200815AH   PUBLIC    XDATA    BYTE      P72C
      02008005H   PUBLIC    XDATA    BYTE      P05F
      0200800CH   PUBLIC    XDATA    BYTE      P14F
      02008013H   PUBLIC    XDATA    BYTE      P23F
      0200801AH   PUBLIC    XDATA    BYTE      P32F
      02008021H   PUBLIC    XDATA    BYTE      P41F
      02008028H   PUBLIC    XDATA    BYTE      P50F
LX51 LINKER/LOCATER V4.66.97.0                                                        04/10/2021  13:15:07  PAGE 61


      02008092H   PUBLIC    XDATA    BYTE      ATKNL
      0200812FH   PUBLIC    XDATA    BYTE      P17C
      02008136H   PUBLIC    XDATA    BYTE      P26C
      0200813DH   PUBLIC    XDATA    BYTE      P35C
      02008144H   PUBLIC    XDATA    BYTE      P44C
      0200814BH   PUBLIC    XDATA    BYTE      P53C
      02008152H   PUBLIC    XDATA    BYTE      P62C
      02008159H   PUBLIC    XDATA    BYTE      P71C
      02008004H   PUBLIC    XDATA    BYTE      P04F
      0200800BH   PUBLIC    XDATA    BYTE      P13F
      02008012H   PUBLIC    XDATA    BYTE      P22F
      02008019H   PUBLIC    XDATA    BYTE      P31F
      02008020H   PUBLIC    XDATA    BYTE      P40F
      02008107H   PUBLIC    XDATA    BYTE      TLDAT
      02008109H   PUBLIC    XDATA    BYTE      TLFLG
      02008127H   PUBLIC    XDATA    BYTE      P07C
      0200812EH   PUBLIC    XDATA    BYTE      P16C
      02008135H   PUBLIC    XDATA    BYTE      P25C
      0200813CH   PUBLIC    XDATA    BYTE      P34C
      02008143H   PUBLIC    XDATA    BYTE      P43C
      0200814AH   PUBLIC    XDATA    BYTE      P52C
      02008151H   PUBLIC    XDATA    BYTE      P61C
      02008158H   PUBLIC    XDATA    BYTE      P70C
      02008003H   PUBLIC    XDATA    BYTE      P03F
      0200800AH   PUBLIC    XDATA    BYTE      P12F
      02008011H   PUBLIC    XDATA    BYTE      P21F
      02008018H   PUBLIC    XDATA    BYTE      P30F
      02008066H   PUBLIC    XDATA    BYTE      MTGDL
      02008126H   PUBLIC    XDATA    BYTE      P06C
      0200812DH   PUBLIC    XDATA    BYTE      P15C
      02008134H   PUBLIC    XDATA    BYTE      P24C
      0200813BH   PUBLIC    XDATA    BYTE      P33C
      02008142H   PUBLIC    XDATA    BYTE      P42C
      02008149H   PUBLIC    XDATA    BYTE      P51C
      02008150H   PUBLIC    XDATA    BYTE      P60C
      02008002H   PUBLIC    XDATA    BYTE      P02F
      02008009H   PUBLIC    XDATA    BYTE      P11F
      02008010H   PUBLIC    XDATA    BYTE      P20F
      02008125H   PUBLIC    XDATA    BYTE      P05C
      0200812CH   PUBLIC    XDATA    BYTE      P14C
      02008133H   PUBLIC    XDATA    BYTE      P23C
      0200813AH   PUBLIC    XDATA    BYTE      P32C
      02008141H   PUBLIC    XDATA    BYTE      P41C
      02008148H   PUBLIC    XDATA    BYTE      P50C
      02008001H   PUBLIC    XDATA    BYTE      P01F
      02008008H   PUBLIC    XDATA    BYTE      P10F
      02008093H   PUBLIC    XDATA    BYTE      ATKNH
      02008124H   PUBLIC    XDATA    BYTE      P04C
      0200812BH   PUBLIC    XDATA    BYTE      P13C
      02008132H   PUBLIC    XDATA    BYTE      P22C
      02008139H   PUBLIC    XDATA    BYTE      P31C
      02008140H   PUBLIC    XDATA    BYTE      P40C
      02008000H   PUBLIC    XDATA    BYTE      P00F
      02008123H   PUBLIC    XDATA    BYTE      P03C
      0200812AH   PUBLIC    XDATA    BYTE      P12C
      02008131H   PUBLIC    XDATA    BYTE      P21C
      02008138H   PUBLIC    XDATA    BYTE      P30C
      0200804CH   PUBLIC    XDATA    BYTE      CPCKS
      02008122H   PUBLIC    XDATA    BYTE      P02C
      02008129H   PUBLIC    XDATA    BYTE      P11C
      02008130H   PUBLIC    XDATA    BYTE      P20C
      02008121H   PUBLIC    XDATA    BYTE      P01C
      02008128H   PUBLIC    XDATA    BYTE      P10C
      02008081H   PUBLIC    XDATA    BYTE      CKSEL
      02008120H   PUBLIC    XDATA    BYTE      P00C
LX51 LINKER/LOCATER V4.66.97.0                                                        04/10/2021  13:15:07  PAGE 62


      0200FC00H   PUBLIC    XDATA    BYTE      MECON
      0200FC02H   PUBLIC    XDATA    BYTE      FSDAT
      02008082H   PUBLIC    XDATA    BYTE      CKDIV
      02008080H   PUBLIC    XDATA    BYTE      CKCON
      0200FC01H   PUBLIC    XDATA    BYTE      FSCMD
      02008056H   PUBLIC    XDATA    BYTE      FT3SL
      02008117H   PUBLIC    XDATA    BYTE      LXCAD
      02008054H   PUBLIC    XDATA    BYTE      FT2SL
      0200FC04H   PUBLIC    XDATA    BYTE      PADRD
      02008052H   PUBLIC    XDATA    BYTE      FT1SL
      02008087H   PUBLIC    XDATA    BYTE      TFCFG
      02008050H   PUBLIC    XDATA    BYTE      FT0SL
      02008057H   PUBLIC    XDATA    BYTE      FT3SH
      02008055H   PUBLIC    XDATA    BYTE      FT2SH
      02008053H   PUBLIC    XDATA    BYTE      FT1SH
      02008051H   PUBLIC    XDATA    BYTE      FT0SH
      02008042H   PUBLIC    XDATA    BYTE      OSTRIM
      0200807DH   PUBLIC    XDATA    BYTE      SMVTHL
      02008071H   PUBLIC    XDATA    BYTE      HDCT9
      02008070H   PUBLIC    XDATA    BYTE      HDCT8
      0200807EH   PUBLIC    XDATA    BYTE      SMVTHH
      0200806FH   PUBLIC    XDATA    BYTE      HDCT7
      0200806EH   PUBLIC    XDATA    BYTE      HDCT6
      0200806DH   PUBLIC    XDATA    BYTE      HDCT5
      0200806CH   PUBLIC    XDATA    BYTE      HDCT4
      0200806BH   PUBLIC    XDATA    BYTE      HDCT3
      0200806AH   PUBLIC    XDATA    BYTE      HDCT2
      02008069H   PUBLIC    XDATA    BYTE      HDCT1
      0200FC07H   PUBLIC    XDATA    BYTE      REPSET
      02008068H   PUBLIC    XDATA    BYTE      HDCT0
      02008110H   PUBLIC    XDATA    BYTE      TLCOMS
      02008060H   PUBLIC    XDATA    BYTE      MOTCON
      02008074H   PUBLIC    XDATA    BYTE      MOTPLC
      02008090H   PUBLIC    XDATA    BYTE      TKMAXF
      02008091H   PUBLIC    XDATA    BYTE      TKMINF
      0200810FH   PUBLIC    XDATA    BYTE      TLCNTD
      02008062H   PUBLIC    XDATA    BYTE      MTGCON
      0200807BH   PUBLIC    XDATA    BYTE      SMDATL
      02008058H   PUBLIC    XDATA    BYTE      CTMCON
      02008065H   PUBLIC    XDATA    BYTE      MOTCMD
      02008064H   PUBLIC    XDATA    BYTE      MFPCON
      0200FC05H   PUBLIC    XDATA    BYTE      PTSL
      02008041H   PUBLIC    XDATA    BYTE      OPBCON
      02008063H   PUBLIC    XDATA    BYTE      MHLCON
      0200807CH   PUBLIC    XDATA    BYTE      SMDATH
      02008040H   PUBLIC    XDATA    BYTE      OPACON
      02008061H   PUBLIC    XDATA    BYTE      MOTCFG
      0200FC06H   PUBLIC    XDATA    BYTE      PTSH
      02008106H   PUBLIC    XDATA    BYTE      TLEN
      02008085H   PUBLIC    XDATA    BYTE      ILCFGL
      0200808AH   PUBLIC    XDATA    BYTE      ACPDLL
      02008083H   PUBLIC    XDATA    BYTE      IHCFGL
      02008086H   PUBLIC    XDATA    BYTE      ILCFGH
      0200808BH   PUBLIC    XDATA    BYTE      ACPDLH
      0200808CH   PUBLIC    XDATA    BYTE      ACPDHL
      02008084H   PUBLIC    XDATA    BYTE      IHCFGH
      02008101H   PUBLIC    XDATA    BYTE      I2CIOS
      0200808DH   PUBLIC    XDATA    BYTE      ACPDHH
      0200FC03H   PUBLIC    XDATA    BYTE      LOCK
      0200804BH   PUBLIC    XDATA    BYTE      CP3CON
      0200804AH   PUBLIC    XDATA    BYTE      CP2CON
      02008049H   PUBLIC    XDATA    BYTE      CP1CON
      02008048H   PUBLIC    XDATA    BYTE      CP0CON
      02008059H   PUBLIC    XDATA    BYTE      CTMVTHL
      02008088H   PUBLIC    XDATA    BYTE      ADCALL
LX51 LINKER/LOCATER V4.66.97.0                                                        04/10/2021  13:15:07  PAGE 63


      0200805AH   PUBLIC    XDATA    BYTE      CTMVTHH
      0200810DH   PUBLIC    XDATA    BYTE      TLCNTLL
      02008089H   PUBLIC    XDATA    BYTE      ADCALH
      0200810BH   PUBLIC    XDATA    BYTE      TLCNTKL
      0200810EH   PUBLIC    XDATA    BYTE      TLCNTLH
      0200810CH   PUBLIC    XDATA    BYTE      TLCNTKH
      0200805BH   PUBLIC    XDATA    BYTE      CTMCNTL
      0200805CH   PUBLIC    XDATA    BYTE      CTMCNTH
      02008100H   PUBLIC    XDATA    BYTE      SPMAX
      02008103H   PUBLIC    XDATA    BYTE      TKPWC
      02008079H   PUBLIC    XDATA    BYTE      SMSTA
      0200811FH   PUBLIC    XDATA    BYTE      TPCTL
      02008073H   PUBLIC    XDATA    BYTE      HDCT11
      02008072H   PUBLIC    XDATA    BYTE      HDCT10
      0200807AH   PUBLIC    XDATA    BYTE      SMDIV
      02008037H   PUBLIC    XDATA    BYTE      P67F
      0200802FH   PUBLIC    XDATA    BYTE      P57F
      02008036H   PUBLIC    XDATA    BYTE      P66F
      0200803DH   PUBLIC    XDATA    BYTE      P75F
      0200810AH   PUBLIC    XDATA    BYTE      TLCKS
      02008027H   PUBLIC    XDATA    BYTE      P47F
      0200802EH   PUBLIC    XDATA    BYTE      P56F
      02008035H   PUBLIC    XDATA    BYTE      P65F
      0200803CH   PUBLIC    XDATA    BYTE      P74F
      0200804EH   PUBLIC    XDATA    BYTE      CPVTC
      02008078H   PUBLIC    XDATA    BYTE      SMCON
      02008108H   PUBLIC    XDATA    BYTE      TLCON
      0200801FH   PUBLIC    XDATA    BYTE      P37F
      02008026H   PUBLIC    XDATA    BYTE      P46F
      0200802DH   PUBLIC    XDATA    BYTE      P55F
      02008034H   PUBLIC    XDATA    BYTE      P64F
      0200803BH   PUBLIC    XDATA    BYTE      P73F
      02008067H   PUBLIC    XDATA    BYTE      MOTIF
      02008157H   PUBLIC    XDATA    BYTE      P67C
      02008017H   PUBLIC    XDATA    BYTE      P27F
      0200801EH   PUBLIC    XDATA    BYTE      P36F
      02008025H   PUBLIC    XDATA    BYTE      P45F
      0200802CH   PUBLIC    XDATA    BYTE      P54F
      02008033H   PUBLIC    XDATA    BYTE      P63F
      0200803AH   PUBLIC    XDATA    BYTE      P72F
      0200814FH   PUBLIC    XDATA    BYTE      P57C
      02008156H   PUBLIC    XDATA    BYTE      P66C
      0200815DH   PUBLIC    XDATA    BYTE      P75C
      0200800FH   PUBLIC    XDATA    BYTE      P17F
      02008016H   PUBLIC    XDATA    BYTE      P26F
      0200801DH   PUBLIC    XDATA    BYTE      P35F
      02008024H   PUBLIC    XDATA    BYTE      P44F
      0200802BH   PUBLIC    XDATA    BYTE      P53F
      02008032H   PUBLIC    XDATA    BYTE      P62F
      02008039H   PUBLIC    XDATA    BYTE      P71F
      0200811EH   PUBLIC    XDATA    BYTE      FTCTL
      02008147H   PUBLIC    XDATA    BYTE      P47C
      0200814EH   PUBLIC    XDATA    BYTE      P56C
      02008155H   PUBLIC    XDATA    BYTE      P65C
      0200815CH   PUBLIC    XDATA    BYTE      P74C
      01001A9FH   PUBLIC    CODE     ---       main
      000000E3H   SFRSYM    DATA     BYTE      LXDAT
      000000C4H   SFRSYM    DATA     BYTE      TKCHS
      00000080H   SFRSYM    DATA     BYTE      P0
      000000C1H   SFRSYM    DATA     BYTE      TKCON
      00000090H   SFRSYM    DATA     BYTE      P1
      000000A0H   SFRSYM    DATA     BYTE      P2
      000000C0H.6 SFRSYM    DATA     BIT       MOTOR_SWITCH_ADC_GPIO
      000000C0H.0 SFRSYM    DATA     BIT       is_busy
      000000B0H   SFRSYM    DATA     BYTE      P3
LX51 LINKER/LOCATER V4.66.97.0                                                        04/10/2021  13:15:07  PAGE 64


      000000C0H.2 SFRSYM    DATA     BIT       DC_5V_GPIO
      000000D0H.6 SFRSYM    DATA     BIT       AC
      000000C0H   SFRSYM    DATA     BYTE      P4
      000000D8H   SFRSYM    DATA     BYTE      P5
      000000A5H   SFRSYM    DATA     BYTE      SPCON
      000000A8H.7 SFRSYM    DATA     BIT       EA
      000000E1H   SFRSYM    DATA     BYTE      LXCON
      000000A9H   SFRSYM    DATA     BYTE      P6
      000000C8H.0 SFRSYM    DATA     BIT       T2P0
      000000D9H   SFRSYM    DATA     BYTE      P7
      000000C8H.1 SFRSYM    DATA     BIT       T2P1
      000000F1H   SFRSYM    DATA     BYTE      RTCON
      000000C8H.4 SFRSYM    DATA     BIT       T2R0
      000000DAH   SFRSYM    DATA     BYTE      PWMEN
      000000CFH   SFRSYM    DATA     BYTE      TKMSH
      00000086H   SFRSYM    DATA     BYTE      PWCON
      000000C8H.5 SFRSYM    DATA     BIT       T2R1
      000000C0H.2 SFRSYM    DATA     BIT       dc_5v_in
      000000CEH   SFRSYM    DATA     BYTE      TKMSL
      000000A7H   SFRSYM    DATA     BYTE      SPSTA
      00000083H   SFRSYM    DATA     BYTE      DP0H
      000000A8H   SFRSYM    DATA     BYTE      IE
      00000085H   SFRSYM    DATA     BYTE      DP1H
      000000E9H   SFRSYM    DATA     BYTE      RTCSS
      00000082H   SFRSYM    DATA     BYTE      DP0L
      000000C0H.1 SFRSYM    DATA     BIT       BAT_ADC_GPIO
      000000CBH   SFRSYM    DATA     BYTE      T2CH
      000000B3H   SFRSYM    DATA     BYTE      I2CADM
      00000084H   SFRSYM    DATA     BYTE      DP1L
      000000C8H.3 SFRSYM    DATA     BIT       T2IE
      000000C3H   SFRSYM    DATA     BYTE      TKMTS
      000000C0H.7 SFRSYM    DATA     BIT       MODE_SWITCH_ADC_GPIO
      000000CAH   SFRSYM    DATA     BYTE      T2CL
      000000B2H   SFRSYM    DATA     BYTE      I2CADR
      000000B4H   SFRSYM    DATA     BYTE      I2CCCR
      000000B8H   SFRSYM    DATA     BYTE      IP
      000000B7H   SFRSYM    DATA     BYTE      I2CFLG
      000000B5H   SFRSYM    DATA     BYTE      I2CDAT
      000000EDH   SFRSYM    DATA     BYTE      RTMSS
      000000D0H.7 SFRSYM    DATA     BIT       CY
      000000BBH   SFRSYM    DATA     BYTE      ADCFGH
      000000DCH   SFRSYM    DATA     BYTE      PWMCMAX
      000000B1H   SFRSYM    DATA     BYTE      I2CCON
      000000D1H   SFRSYM    DATA     BYTE      PWMDIVH
      000000BAH   SFRSYM    DATA     BYTE      ADCFGL
      00000081H   SFRSYM    DATA     BYTE      SP
      000000F9H   SFRSYM    DATA     BYTE      EPIE
      000000D0H.2 SFRSYM    DATA     BIT       OV
      000000FAH   SFRSYM    DATA     BYTE      EPIF
      000000DFH   SFRSYM    DATA     BYTE      PWMDIVL
      000000B6H   SFRSYM    DATA     BYTE      I2CSTA
      000000E8H   SFRSYM    DATA     BYTE      EXIE
      000000D3H   SFRSYM    DATA     BYTE      PWMDUTH
      000000C7H   SFRSYM    DATA     BYTE      TKIF
      0000008FH   SFRSYM    DATA     BYTE      IT0CON
      00000080H.0 SFRSYM    DATA     BIT       P00
      000000ECH   SFRSYM    DATA     BYTE      RTAH
      000000D2H   SFRSYM    DATA     BYTE      PWMDUTL
      0000008EH   SFRSYM    DATA     BYTE      IT1CON
      00000090H.0 SFRSYM    DATA     BIT       P10
      00000080H.1 SFRSYM    DATA     BIT       P01
      0000009DH   SFRSYM    DATA     BYTE      S1RELH
      00000087H   SFRSYM    DATA     BYTE      PCON
      000000A0H.0 SFRSYM    DATA     BIT       P20
      00000090H.1 SFRSYM    DATA     BIT       P11
LX51 LINKER/LOCATER V4.66.97.0                                                        04/10/2021  13:15:07  PAGE 65


      00000080H.2 SFRSYM    DATA     BIT       P02
      000000E8H.0 SFRSYM    DATA     BIT       INT2EN
      000000F4H   SFRSYM    DATA     BYTE      RTCH
      000000A4H   SFRSYM    DATA     BYTE      S2RELH
      000000B0H.2 SFRSYM    DATA     BIT       LED_SW_MOD_GPIO
      000000B0H.0 SFRSYM    DATA     BIT       P30
      000000A0H.1 SFRSYM    DATA     BIT       P21
      00000090H.2 SFRSYM    DATA     BIT       P12
      00000080H.3 SFRSYM    DATA     BIT       P03
      000000E8H.1 SFRSYM    DATA     BIT       INT3EN
      000000C0H.0 SFRSYM    DATA     BIT       P40
      000000B0H.1 SFRSYM    DATA     BIT       P31
      000000A0H.2 SFRSYM    DATA     BIT       P22
      00000090H.3 SFRSYM    DATA     BIT       P13
      00000080H.4 SFRSYM    DATA     BIT       P04
      000000E8H.2 SFRSYM    DATA     BIT       INT4EN
      000000D8H.0 SFRSYM    DATA     BIT       P50
      000000C0H.1 SFRSYM    DATA     BIT       P41
      000000B0H.2 SFRSYM    DATA     BIT       P32
      000000A0H.3 SFRSYM    DATA     BIT       P23
      00000090H.4 SFRSYM    DATA     BIT       P14
      00000080H.5 SFRSYM    DATA     BIT       P05
      000000E8H.3 SFRSYM    DATA     BIT       INT5EN
      000000EBH   SFRSYM    DATA     BYTE      RTAM
      0000009CH   SFRSYM    DATA     BYTE      S1RELL
      00000089H   SFRSYM    DATA     BYTE      TMOD
      00000088H   SFRSYM    DATA     BYTE      TCON
      000000D8H.1 SFRSYM    DATA     BIT       P51
      000000C0H.2 SFRSYM    DATA     BIT       P42
      000000B0H.3 SFRSYM    DATA     BIT       P33
      000000A0H.4 SFRSYM    DATA     BIT       P24
      00000090H.5 SFRSYM    DATA     BIT       P15
      00000080H.6 SFRSYM    DATA     BIT       P06
      000000E8H.4 SFRSYM    DATA     BIT       INT6EN
      000000A3H   SFRSYM    DATA     BYTE      S2RELL
      000000D8H.2 SFRSYM    DATA     BIT       P52
      000000C0H.3 SFRSYM    DATA     BIT       P43
      000000B0H.4 SFRSYM    DATA     BIT       P34
      000000A0H.5 SFRSYM    DATA     BIT       P25
      00000090H.6 SFRSYM    DATA     BIT       P16
      00000080H.7 SFRSYM    DATA     BIT       P07
      000000E8H.5 SFRSYM    DATA     BIT       INT7EN
      000000C8H.2 SFRSYM    DATA     BIT       UCKS
      000000F8H   SFRSYM    DATA     BYTE      EXIP
      000000F3H   SFRSYM    DATA     BYTE      RTCM
      000000D8H.3 SFRSYM    DATA     BIT       P53
      000000C0H.4 SFRSYM    DATA     BIT       P44
      000000B0H.5 SFRSYM    DATA     BIT       P35
      000000A0H.6 SFRSYM    DATA     BIT       P26
      00000090H.7 SFRSYM    DATA     BIT       P17
      000000E8H.6 SFRSYM    DATA     BIT       INT8EN
      000000D8H.4 SFRSYM    DATA     BIT       P54
      000000C0H.5 SFRSYM    DATA     BIT       P45
      000000B0H.6 SFRSYM    DATA     BIT       P36
      000000A0H.7 SFRSYM    DATA     BIT       P27
      000000E8H.7 SFRSYM    DATA     BIT       INT9EN
      000000D8H.5 SFRSYM    DATA     BIT       P55
      000000C0H.6 SFRSYM    DATA     BIT       P46
      000000B0H.7 SFRSYM    DATA     BIT       P37
      000000D8H.6 SFRSYM    DATA     BIT       P56
      000000C0H.7 SFRSYM    DATA     BIT       P47
      000000EAH   SFRSYM    DATA     BYTE      RTAS
      000000AFH   SFRSYM    DATA     BYTE      HVTH
      00000095H   SFRSYM    DATA     BYTE      RCTAGH
      000000D8H.7 SFRSYM    DATA     BIT       P57
LX51 LINKER/LOCATER V4.66.97.0                                                        04/10/2021  13:15:07  PAGE 66


      000000F2H   SFRSYM    DATA     BYTE      RTCS
      00000088H.1 SFRSYM    DATA     BIT       IE0
      00000088H.3 SFRSYM    DATA     BIT       IE1
      00000094H   SFRSYM    DATA     BYTE      RCTAGL
      000000F0H   SFRSYM    DATA     BYTE      B
      000000E7H   SFRSYM    DATA     BYTE      MDUDAT
      000000C0H.0 SFRSYM    DATA     BIT       busy
      000000DEH   SFRSYM    DATA     BYTE      PWMCFG
      000000D4H   SFRSYM    DATA     BYTE      PWMAIF
      000000E0H   SFRSYM    DATA     BYTE      ACC
      000000D5H   SFRSYM    DATA     BYTE      PWMBIF
      0000009FH   SFRSYM    DATA     BYTE      RCMSHH
      000000A8H.4 SFRSYM    DATA     BIT       ES0
      000000EFH   SFRSYM    DATA     BYTE      LVDCON
      000000E6H   SFRSYM    DATA     BYTE      MDUCON
      000000D6H   SFRSYM    DATA     BYTE      PWMCIF
      000000A8H.1 SFRSYM    DATA     BIT       ET0
      000000A8H.6 SFRSYM    DATA     BIT       ES1
      000000D7H   SFRSYM    DATA     BYTE      PWMDIF
      000000A8H.3 SFRSYM    DATA     BIT       ET1
      00000088H.5 SFRSYM    DATA     BIT       TF0
      000000FDH   SFRSYM    DATA     BYTE      IDLSTH
      000000AEH   SFRSYM    DATA     BYTE      PLLCON
      000000A8H.5 SFRSYM    DATA     BIT       ET2
      00000098H.0 SFRSYM    DATA     BIT       RI0
      00000088H.7 SFRSYM    DATA     BIT       TF1
      0000009EH   SFRSYM    DATA     BYTE      RCMSHL
      00000097H   SFRSYM    DATA     BYTE      RCMSLH
      000000C8H.7 SFRSYM    DATA     BIT       TF2
      00000098H.2 SFRSYM    DATA     BIT       RB8
      0000008CH   SFRSYM    DATA     BYTE      TH0
      000000A8H.0 SFRSYM    DATA     BIT       EX0
      00000098H.1 SFRSYM    DATA     BIT       TI0
      00000088H.0 SFRSYM    DATA     BIT       IT0
      0000008DH   SFRSYM    DATA     BYTE      TH1
      000000A8H.2 SFRSYM    DATA     BIT       EX1
      00000098H.3 SFRSYM    DATA     BIT       TB8
      00000088H.2 SFRSYM    DATA     BIT       IT1
      000000FCH   SFRSYM    DATA     BYTE      IDLSTL
      000000CDH   SFRSYM    DATA     BYTE      TH2
      000000D0H.0 SFRSYM    DATA     BIT       P
      00000096H   SFRSYM    DATA     BYTE      RCMSLL
      00000098H.7 SFRSYM    DATA     BIT       SM0
      0000008AH   SFRSYM    DATA     BYTE      TL0
      00000098H.6 SFRSYM    DATA     BIT       SM1
      000000E5H   SFRSYM    DATA     BYTE      LXDIVH
      0000008BH   SFRSYM    DATA     BYTE      TL1
      000000D8H.4 SFRSYM    DATA     BIT       BL_CTL
      00000098H.5 SFRSYM    DATA     BIT       SM2
      000000CCH   SFRSYM    DATA     BYTE      TL2
      000000B8H.4 SFRSYM    DATA     BIT       PS0
      000000B8H.1 SFRSYM    DATA     BIT       PT0
      000000B8H.6 SFRSYM    DATA     BIT       PS1
      000000B8H.3 SFRSYM    DATA     BIT       PT1
      000000D0H.3 SFRSYM    DATA     BIT       RS0
      000000E4H   SFRSYM    DATA     BYTE      LXDIVL
      000000BDH   SFRSYM    DATA     BYTE      ADCDH
      000000B8H.5 SFRSYM    DATA     BIT       PT2
      00000088H.4 SFRSYM    DATA     BIT       TR0
      000000D0H.4 SFRSYM    DATA     BIT       RS1
      000000DDH   SFRSYM    DATA     BYTE      PWMCON
      00000088H.6 SFRSYM    DATA     BIT       TR1
      000000ADH   SFRSYM    DATA     BYTE      WDVTHH
      000000C8H.6 SFRSYM    DATA     BIT       TR2
      000000B8H.0 SFRSYM    DATA     BIT       PX0
LX51 LINKER/LOCATER V4.66.97.0                                                        04/10/2021  13:15:07  PAGE 67


      000000B8H.2 SFRSYM    DATA     BIT       PX1
      000000BCH   SFRSYM    DATA     BYTE      ADCDL
      000000ACH   SFRSYM    DATA     BYTE      WDVTHL
      000000DBH   SFRSYM    DATA     BYTE      PWMUPD
      000000C0H.5 SFRSYM    DATA     BIT       KEY_AD_GPIO
      00000099H   SFRSYM    DATA     BYTE      S0BUF
      0000009BH   SFRSYM    DATA     BYTE      S1BUF
      000000D8H.4 SFRSYM    DATA     BIT       BL_CTL_GPIO
      000000A2H   SFRSYM    DATA     BYTE      S2BUF
      00000098H   SFRSYM    DATA     BYTE      S0CON
      00000098H.4 SFRSYM    DATA     BIT       REN
      0000009AH   SFRSYM    DATA     BYTE      S1CON
      000000B9H   SFRSYM    DATA     BYTE      ADCON
      000000A1H   SFRSYM    DATA     BYTE      S2CON
      000000D0H.1 SFRSYM    DATA     BIT       DPS
      000000C9H   SFRSYM    DATA     BYTE      T2MOD
      000000C8H   SFRSYM    DATA     BYTE      T2CON
      000000FFH   SFRSYM    DATA     BYTE      STPSTH
      000000BFH   SFRSYM    DATA     BYTE      CKMIF
      000000FEH   SFRSYM    DATA     BYTE      STPSTL
      000000C2H   SFRSYM    DATA     BYTE      TKCFG
      00000093H   SFRSYM    DATA     BYTE      VCKDH
      000000B0H.3 SFRSYM    DATA     BIT       motor_a
      000000D0H.5 SFRSYM    DATA     BIT       F0
      000000E2H   SFRSYM    DATA     BYTE      LXCFG
      000000ABH   SFRSYM    DATA     BYTE      WDFLG
      00000092H   SFRSYM    DATA     BYTE      VCKDL
      000000B0H.7 SFRSYM    DATA     BIT       motor_b
      000000FBH   SFRSYM    DATA     BYTE      EPCON
      000000F6H   SFRSYM    DATA     BYTE      RTCDH
      000000C6H   SFRSYM    DATA     BYTE      ATKMH
      00000091H   SFRSYM    DATA     BYTE      RCCON
      000000F7H   SFRSYM    DATA     BYTE      INDEX
      000000EEH   SFRSYM    DATA     BYTE      RTCIF
      000000BEH   SFRSYM    DATA     BYTE      CKMON
      000000F5H   SFRSYM    DATA     BYTE      RTCDL
      000000D0H   SFRSYM    DATA     BYTE      PSW
      000000C5H   SFRSYM    DATA     BYTE      ATKML
      000000AAH   SFRSYM    DATA     BYTE      WDCON
      000000A6H   SFRSYM    DATA     BYTE      SPDAT

      01001A9FH   BLOCK     CODE     ---       LVL=0
      01001A9FH   LINE      CODE     ---       #16
      01001A9FH   LINE      CODE     ---       #17
      01001A9FH   LINE      CODE     ---       #22
      01001AA4H   LINE      CODE     ---       #24
      01001AABH   LINE      CODE     ---       #26
      01001AB1H   LINE      CODE     ---       #27
      01001AB5H   LINE      CODE     ---       #29
      01001ABCH   LINE      CODE     ---       #30
      01001AC3H   LINE      CODE     ---       #34
      01001ACEH   LINE      CODE     ---       #37
      01001AD1H   LINE      CODE     ---       #38
      01001AD4H   LINE      CODE     ---       #42
      01001AD7H   LINE      CODE     ---       #43
      01001ADAH   LINE      CODE     ---       #44
      01001ADDH   LINE      CODE     ---       #46
      01001AE0H   LINE      CODE     ---       #48
      01001AE3H   LINE      CODE     ---       #49
      01001AE6H   LINE      CODE     ---       #51
      01001AE9H   LINE      CODE     ---       #53
      01001AECH   LINE      CODE     ---       #55
      01001AEFH   LINE      CODE     ---       #57
      01001AF1H   LINE      CODE     ---       #59
      01001AF1H   LINE      CODE     ---       #60
LX51 LINKER/LOCATER V4.66.97.0                                                        04/10/2021  13:15:07  PAGE 68


      01001AF1H   LINE      CODE     ---       #61
      01001AF7H   LINE      CODE     ---       #62
      01001AF7H   LINE      CODE     ---       #63
      01001AFDH   LINE      CODE     ---       #64
      01001AFDH   LINE      CODE     ---       #65
      01001AFFH   LINE      CODE     ---       #66
      01001B02H   LINE      CODE     ---       #67
      01001B05H   LINE      CODE     ---       #68
      01001B08H   LINE      CODE     ---       #69
      01001B0BH   LINE      CODE     ---       #70
      01001B0EH   LINE      CODE     ---       #71
      01001B11H   LINE      CODE     ---       #72
      01001B14H   LINE      CODE     ---       #73
      01001B14H   LINE      CODE     ---       #76
      01001B1CH   LINE      CODE     ---       #77
      01001B1CH   LINE      CODE     ---       #78
      01001B22H   LINE      CODE     ---       #79
      01001B22H   LINE      CODE     ---       #80
      01001B24H   LINE      CODE     ---       #81
      01001B27H   LINE      CODE     ---       #82
      01001B2AH   LINE      CODE     ---       #83
      01001B33H   LINE      CODE     ---       #84
      01001B33H   LINE      CODE     ---       #87
      01001B39H   LINE      CODE     ---       #88
      01001B39H   LINE      CODE     ---       #89
      01001B3BH   LINE      CODE     ---       #90
      01001B3EH   LINE      CODE     ---       #91
      01001B3EH   LINE      CODE     ---       #93
      01001B44H   LINE      CODE     ---       #94
      01001B44H   LINE      CODE     ---       #95
      01001B46H   LINE      CODE     ---       #96
      01001B49H   LINE      CODE     ---       #97
      01001B4CH   LINE      CODE     ---       #100
      01001B4CH   LINE      CODE     ---       #103
      01001B52H   LINE      CODE     ---       #104
      01001B52H   LINE      CODE     ---       #105
      01001B54H   LINE      CODE     ---       #106
      01001B57H   LINE      CODE     ---       #107
      01001B5AH   LINE      CODE     ---       #108
      01001B5DH   LINE      CODE     ---       #109
      01001B5DH   LINE      CODE     ---       #112
      01001B63H   LINE      CODE     ---       #113
      01001B63H   LINE      CODE     ---       #114
      01001B65H   LINE      CODE     ---       #115
      01001B68H   LINE      CODE     ---       #116
      01001B6BH   LINE      CODE     ---       #117
      01001B6BH   LINE      CODE     ---       #119
      01001B6BH   LINE      CODE     ---       #121
      01001B6DH   LINE      CODE     ---       #124
      01001B6DH   LINE      CODE     ---       #125
      01001B70H   LINE      CODE     ---       #126
      01001B70H   LINE      CODE     ---       #128
      ---         BLOCKEND  ---      ---       LVL=0

      ---         MODULE    ---      ---       BSP
      01003B71H   PUBLIC    CODE     ---       no_use_io_init
      000000E3H   SFRSYM    DATA     BYTE      LXDAT
      000000C4H   SFRSYM    DATA     BYTE      TKCHS
      00000080H   SFRSYM    DATA     BYTE      P0
      000000C1H   SFRSYM    DATA     BYTE      TKCON
      00000090H   SFRSYM    DATA     BYTE      P1
      000000A0H   SFRSYM    DATA     BYTE      P2
      000000C0H.6 SFRSYM    DATA     BIT       MOTOR_SWITCH_ADC_GPIO
      000000C0H.0 SFRSYM    DATA     BIT       is_busy
      000000B0H   SFRSYM    DATA     BYTE      P3
LX51 LINKER/LOCATER V4.66.97.0                                                        04/10/2021  13:15:07  PAGE 69


      000000C0H.2 SFRSYM    DATA     BIT       DC_5V_GPIO
      000000D0H.6 SFRSYM    DATA     BIT       AC
      000000C0H   SFRSYM    DATA     BYTE      P4
      000000D8H   SFRSYM    DATA     BYTE      P5
      000000A5H   SFRSYM    DATA     BYTE      SPCON
      000000A8H.7 SFRSYM    DATA     BIT       EA
      000000E1H   SFRSYM    DATA     BYTE      LXCON
      000000A9H   SFRSYM    DATA     BYTE      P6
      000000C8H.0 SFRSYM    DATA     BIT       T2P0
      000000D9H   SFRSYM    DATA     BYTE      P7
      000000C8H.1 SFRSYM    DATA     BIT       T2P1
      000000F1H   SFRSYM    DATA     BYTE      RTCON
      000000C8H.4 SFRSYM    DATA     BIT       T2R0
      000000DAH   SFRSYM    DATA     BYTE      PWMEN
      000000CFH   SFRSYM    DATA     BYTE      TKMSH
      00000086H   SFRSYM    DATA     BYTE      PWCON
      000000C8H.5 SFRSYM    DATA     BIT       T2R1
      000000C0H.2 SFRSYM    DATA     BIT       dc_5v_in
      000000CEH   SFRSYM    DATA     BYTE      TKMSL
      000000A7H   SFRSYM    DATA     BYTE      SPSTA
      00000083H   SFRSYM    DATA     BYTE      DP0H
      000000A8H   SFRSYM    DATA     BYTE      IE
      00000085H   SFRSYM    DATA     BYTE      DP1H
      000000E9H   SFRSYM    DATA     BYTE      RTCSS
      00000082H   SFRSYM    DATA     BYTE      DP0L
      000000C0H.1 SFRSYM    DATA     BIT       BAT_ADC_GPIO
      000000CBH   SFRSYM    DATA     BYTE      T2CH
      000000B3H   SFRSYM    DATA     BYTE      I2CADM
      00000084H   SFRSYM    DATA     BYTE      DP1L
      000000C8H.3 SFRSYM    DATA     BIT       T2IE
      000000C3H   SFRSYM    DATA     BYTE      TKMTS
      000000C0H.7 SFRSYM    DATA     BIT       MODE_SWITCH_ADC_GPIO
      000000CAH   SFRSYM    DATA     BYTE      T2CL
      000000B2H   SFRSYM    DATA     BYTE      I2CADR
      000000B4H   SFRSYM    DATA     BYTE      I2CCCR
      000000B8H   SFRSYM    DATA     BYTE      IP
      000000B7H   SFRSYM    DATA     BYTE      I2CFLG
      000000B5H   SFRSYM    DATA     BYTE      I2CDAT
      000000EDH   SFRSYM    DATA     BYTE      RTMSS
      000000D0H.7 SFRSYM    DATA     BIT       CY
      000000BBH   SFRSYM    DATA     BYTE      ADCFGH
      000000DCH   SFRSYM    DATA     BYTE      PWMCMAX
      000000B1H   SFRSYM    DATA     BYTE      I2CCON
      000000D1H   SFRSYM    DATA     BYTE      PWMDIVH
      000000BAH   SFRSYM    DATA     BYTE      ADCFGL
      00000081H   SFRSYM    DATA     BYTE      SP
      000000F9H   SFRSYM    DATA     BYTE      EPIE
      000000D0H.2 SFRSYM    DATA     BIT       OV
      000000FAH   SFRSYM    DATA     BYTE      EPIF
      000000DFH   SFRSYM    DATA     BYTE      PWMDIVL
      000000B6H   SFRSYM    DATA     BYTE      I2CSTA
      000000E8H   SFRSYM    DATA     BYTE      EXIE
      000000D3H   SFRSYM    DATA     BYTE      PWMDUTH
      000000C7H   SFRSYM    DATA     BYTE      TKIF
      0000008FH   SFRSYM    DATA     BYTE      IT0CON
      00000080H.0 SFRSYM    DATA     BIT       P00
      000000ECH   SFRSYM    DATA     BYTE      RTAH
      000000D2H   SFRSYM    DATA     BYTE      PWMDUTL
      0000008EH   SFRSYM    DATA     BYTE      IT1CON
      00000090H.0 SFRSYM    DATA     BIT       P10
      00000080H.1 SFRSYM    DATA     BIT       P01
      0000009DH   SFRSYM    DATA     BYTE      S1RELH
      00000087H   SFRSYM    DATA     BYTE      PCON
      000000A0H.0 SFRSYM    DATA     BIT       P20
      00000090H.1 SFRSYM    DATA     BIT       P11
LX51 LINKER/LOCATER V4.66.97.0                                                        04/10/2021  13:15:07  PAGE 70


      00000080H.2 SFRSYM    DATA     BIT       P02
      000000E8H.0 SFRSYM    DATA     BIT       INT2EN
      000000F4H   SFRSYM    DATA     BYTE      RTCH
      000000A4H   SFRSYM    DATA     BYTE      S2RELH
      000000B0H.2 SFRSYM    DATA     BIT       LED_SW_MOD_GPIO
      000000B0H.0 SFRSYM    DATA     BIT       P30
      000000A0H.1 SFRSYM    DATA     BIT       P21
      00000090H.2 SFRSYM    DATA     BIT       P12
      00000080H.3 SFRSYM    DATA     BIT       P03
      000000E8H.1 SFRSYM    DATA     BIT       INT3EN
      000000C0H.0 SFRSYM    DATA     BIT       P40
      000000B0H.1 SFRSYM    DATA     BIT       P31
      000000A0H.2 SFRSYM    DATA     BIT       P22
      00000090H.3 SFRSYM    DATA     BIT       P13
      00000080H.4 SFRSYM    DATA     BIT       P04
      000000E8H.2 SFRSYM    DATA     BIT       INT4EN
      000000D8H.0 SFRSYM    DATA     BIT       P50
      000000C0H.1 SFRSYM    DATA     BIT       P41
      000000B0H.2 SFRSYM    DATA     BIT       P32
      000000A0H.3 SFRSYM    DATA     BIT       P23
      00000090H.4 SFRSYM    DATA     BIT       P14
      00000080H.5 SFRSYM    DATA     BIT       P05
      000000E8H.3 SFRSYM    DATA     BIT       INT5EN
      000000EBH   SFRSYM    DATA     BYTE      RTAM
      0000009CH   SFRSYM    DATA     BYTE      S1RELL
      00000089H   SFRSYM    DATA     BYTE      TMOD
      00000088H   SFRSYM    DATA     BYTE      TCON
      000000D8H.1 SFRSYM    DATA     BIT       P51
      000000C0H.2 SFRSYM    DATA     BIT       P42
      000000B0H.3 SFRSYM    DATA     BIT       P33
      000000A0H.4 SFRSYM    DATA     BIT       P24
      00000090H.5 SFRSYM    DATA     BIT       P15
      00000080H.6 SFRSYM    DATA     BIT       P06
      000000E8H.4 SFRSYM    DATA     BIT       INT6EN
      000000A3H   SFRSYM    DATA     BYTE      S2RELL
      000000D8H.2 SFRSYM    DATA     BIT       P52
      000000C0H.3 SFRSYM    DATA     BIT       P43
      000000B0H.4 SFRSYM    DATA     BIT       P34
      000000A0H.5 SFRSYM    DATA     BIT       P25
      00000090H.6 SFRSYM    DATA     BIT       P16
      00000080H.7 SFRSYM    DATA     BIT       P07
      000000E8H.5 SFRSYM    DATA     BIT       INT7EN
      000000C8H.2 SFRSYM    DATA     BIT       UCKS
      000000F8H   SFRSYM    DATA     BYTE      EXIP
      000000F3H   SFRSYM    DATA     BYTE      RTCM
      000000D8H.3 SFRSYM    DATA     BIT       P53
      000000C0H.4 SFRSYM    DATA     BIT       P44
      000000B0H.5 SFRSYM    DATA     BIT       P35
      000000A0H.6 SFRSYM    DATA     BIT       P26
      00000090H.7 SFRSYM    DATA     BIT       P17
      000000E8H.6 SFRSYM    DATA     BIT       INT8EN
      000000D8H.4 SFRSYM    DATA     BIT       P54
      000000C0H.5 SFRSYM    DATA     BIT       P45
      000000B0H.6 SFRSYM    DATA     BIT       P36
      000000A0H.7 SFRSYM    DATA     BIT       P27
      000000E8H.7 SFRSYM    DATA     BIT       INT9EN
      000000D8H.5 SFRSYM    DATA     BIT       P55
      000000C0H.6 SFRSYM    DATA     BIT       P46
      000000B0H.7 SFRSYM    DATA     BIT       P37
      000000D8H.6 SFRSYM    DATA     BIT       P56
      000000C0H.7 SFRSYM    DATA     BIT       P47
      000000EAH   SFRSYM    DATA     BYTE      RTAS
      000000AFH   SFRSYM    DATA     BYTE      HVTH
      00000095H   SFRSYM    DATA     BYTE      RCTAGH
      000000D8H.7 SFRSYM    DATA     BIT       P57
LX51 LINKER/LOCATER V4.66.97.0                                                        04/10/2021  13:15:07  PAGE 71


      000000F2H   SFRSYM    DATA     BYTE      RTCS
      00000088H.1 SFRSYM    DATA     BIT       IE0
      00000088H.3 SFRSYM    DATA     BIT       IE1
      00000094H   SFRSYM    DATA     BYTE      RCTAGL
      000000F0H   SFRSYM    DATA     BYTE      B
      000000E7H   SFRSYM    DATA     BYTE      MDUDAT
      000000C0H.0 SFRSYM    DATA     BIT       busy
      000000DEH   SFRSYM    DATA     BYTE      PWMCFG
      000000D4H   SFRSYM    DATA     BYTE      PWMAIF
      000000E0H   SFRSYM    DATA     BYTE      ACC
      000000D5H   SFRSYM    DATA     BYTE      PWMBIF
      0000009FH   SFRSYM    DATA     BYTE      RCMSHH
      000000A8H.4 SFRSYM    DATA     BIT       ES0
      000000EFH   SFRSYM    DATA     BYTE      LVDCON
      000000E6H   SFRSYM    DATA     BYTE      MDUCON
      000000D6H   SFRSYM    DATA     BYTE      PWMCIF
      000000A8H.1 SFRSYM    DATA     BIT       ET0
      000000A8H.6 SFRSYM    DATA     BIT       ES1
      000000D7H   SFRSYM    DATA     BYTE      PWMDIF
      000000A8H.3 SFRSYM    DATA     BIT       ET1
      00000088H.5 SFRSYM    DATA     BIT       TF0
      000000FDH   SFRSYM    DATA     BYTE      IDLSTH
      000000AEH   SFRSYM    DATA     BYTE      PLLCON
      000000A8H.5 SFRSYM    DATA     BIT       ET2
      00000098H.0 SFRSYM    DATA     BIT       RI0
      00000088H.7 SFRSYM    DATA     BIT       TF1
      0000009EH   SFRSYM    DATA     BYTE      RCMSHL
      00000097H   SFRSYM    DATA     BYTE      RCMSLH
      000000C8H.7 SFRSYM    DATA     BIT       TF2
      00000098H.2 SFRSYM    DATA     BIT       RB8
      0000008CH   SFRSYM    DATA     BYTE      TH0
      000000A8H.0 SFRSYM    DATA     BIT       EX0
      00000098H.1 SFRSYM    DATA     BIT       TI0
      00000088H.0 SFRSYM    DATA     BIT       IT0
      0000008DH   SFRSYM    DATA     BYTE      TH1
      000000A8H.2 SFRSYM    DATA     BIT       EX1
      00000098H.3 SFRSYM    DATA     BIT       TB8
      00000088H.2 SFRSYM    DATA     BIT       IT1
      000000FCH   SFRSYM    DATA     BYTE      IDLSTL
      000000CDH   SFRSYM    DATA     BYTE      TH2
      000000D0H.0 SFRSYM    DATA     BIT       P
      00000096H   SFRSYM    DATA     BYTE      RCMSLL
      00000098H.7 SFRSYM    DATA     BIT       SM0
      0000008AH   SFRSYM    DATA     BYTE      TL0
      00000098H.6 SFRSYM    DATA     BIT       SM1
      000000E5H   SFRSYM    DATA     BYTE      LXDIVH
      0000008BH   SFRSYM    DATA     BYTE      TL1
      000000D8H.4 SFRSYM    DATA     BIT       BL_CTL
      00000098H.5 SFRSYM    DATA     BIT       SM2
      000000CCH   SFRSYM    DATA     BYTE      TL2
      000000B8H.4 SFRSYM    DATA     BIT       PS0
      000000B8H.1 SFRSYM    DATA     BIT       PT0
      000000B8H.6 SFRSYM    DATA     BIT       PS1
      000000B8H.3 SFRSYM    DATA     BIT       PT1
      000000D0H.3 SFRSYM    DATA     BIT       RS0
      000000E4H   SFRSYM    DATA     BYTE      LXDIVL
      000000BDH   SFRSYM    DATA     BYTE      ADCDH
      000000B8H.5 SFRSYM    DATA     BIT       PT2
      00000088H.4 SFRSYM    DATA     BIT       TR0
      000000D0H.4 SFRSYM    DATA     BIT       RS1
      000000DDH   SFRSYM    DATA     BYTE      PWMCON
      00000088H.6 SFRSYM    DATA     BIT       TR1
      000000ADH   SFRSYM    DATA     BYTE      WDVTHH
      000000C8H.6 SFRSYM    DATA     BIT       TR2
      000000B8H.0 SFRSYM    DATA     BIT       PX0
LX51 LINKER/LOCATER V4.66.97.0                                                        04/10/2021  13:15:07  PAGE 72


      000000B8H.2 SFRSYM    DATA     BIT       PX1
      000000BCH   SFRSYM    DATA     BYTE      ADCDL
      000000ACH   SFRSYM    DATA     BYTE      WDVTHL
      000000DBH   SFRSYM    DATA     BYTE      PWMUPD
      000000C0H.5 SFRSYM    DATA     BIT       KEY_AD_GPIO
      00000099H   SFRSYM    DATA     BYTE      S0BUF
      0000009BH   SFRSYM    DATA     BYTE      S1BUF
      000000D8H.4 SFRSYM    DATA     BIT       BL_CTL_GPIO
      000000A2H   SFRSYM    DATA     BYTE      S2BUF
      00000098H   SFRSYM    DATA     BYTE      S0CON
      00000098H.4 SFRSYM    DATA     BIT       REN
      0000009AH   SFRSYM    DATA     BYTE      S1CON
      000000B9H   SFRSYM    DATA     BYTE      ADCON
      000000A1H   SFRSYM    DATA     BYTE      S2CON
      000000D0H.1 SFRSYM    DATA     BIT       DPS
      000000C9H   SFRSYM    DATA     BYTE      T2MOD
      000000C8H   SFRSYM    DATA     BYTE      T2CON
      000000FFH   SFRSYM    DATA     BYTE      STPSTH
      000000BFH   SFRSYM    DATA     BYTE      CKMIF
      000000FEH   SFRSYM    DATA     BYTE      STPSTL
      000000C2H   SFRSYM    DATA     BYTE      TKCFG
      00000093H   SFRSYM    DATA     BYTE      VCKDH
      000000B0H.3 SFRSYM    DATA     BIT       motor_a
      000000D0H.5 SFRSYM    DATA     BIT       F0
      000000E2H   SFRSYM    DATA     BYTE      LXCFG
      000000ABH   SFRSYM    DATA     BYTE      WDFLG
      00000092H   SFRSYM    DATA     BYTE      VCKDL
      000000B0H.7 SFRSYM    DATA     BIT       motor_b
      000000FBH   SFRSYM    DATA     BYTE      EPCON
      000000F6H   SFRSYM    DATA     BYTE      RTCDH
      000000C6H   SFRSYM    DATA     BYTE      ATKMH
      00000091H   SFRSYM    DATA     BYTE      RCCON
      000000F7H   SFRSYM    DATA     BYTE      INDEX
      000000EEH   SFRSYM    DATA     BYTE      RTCIF
      000000BEH   SFRSYM    DATA     BYTE      CKMON
      000000F5H   SFRSYM    DATA     BYTE      RTCDL
      000000D0H   SFRSYM    DATA     BYTE      PSW
      000000C5H   SFRSYM    DATA     BYTE      ATKML
      000000AAH   SFRSYM    DATA     BYTE      WDCON
      000000A6H   SFRSYM    DATA     BYTE      SPDAT

      01003B71H   BLOCK     CODE     ---       LVL=0
      01003B71H   LINE      CODE     ---       #48
      01003B71H   LINE      CODE     ---       #49
      01003B71H   LINE      CODE     ---       #50
      01003B76H   LINE      CODE     ---       #51
      01003B7AH   LINE      CODE     ---       #52
      01003B7EH   LINE      CODE     ---       #53
      01003B82H   LINE      CODE     ---       #55
      ---         BLOCKEND  ---      ---       LVL=0

      ---         MODULE    ---      ---       RING
      02000276H   PUBLIC    XDATA    BYTE      g_cmd
      02000275H   PUBLIC    XDATA    BYTE      ring_stop_flg
      02000274H   PUBLIC    XDATA    BYTE      send_ring_cmd_step
      02000271H   PUBLIC    XDATA    BYTE      sig_cnt
      02000270H   PUBLIC    XDATA    BYTE      g_alarm_ring_index
      0200026FH   PUBLIC    XDATA    BYTE      ring_gap_time
      0200026EH   PUBLIC    XDATA    BYTE      send_once_flg
      0200024BH   PUBLIC    XDATA    BYTE      addr
      0200024AH   PUBLIC    XDATA    BYTE      alarm_ring_cycle
      02000249H   PUBLIC    XDATA    BYTE      g_current_ring_vol_level
      02000248H   PUBLIC    XDATA    BYTE      need_replay
      02000246H   PUBLIC    XDATA    BYTE      spk_cmd_ing
      01003AEBH   PUBLIC    CODE     ---       ring_stop
LX51 LINKER/LOCATER V4.66.97.0                                                        04/10/2021  13:15:07  PAGE 73


      0100351DH   PUBLIC    CODE     ---       alarm_tone
      01001C37H   PUBLIC    CODE     ---       ring_cmd_isr_handler
      01003456H   PUBLIC    CODE     ---       _send_ring_cmd
      0100246CH   PUBLIC    CODE     ---       ring_vol_adjust_handler
      01003AD1H   PUBLIC    CODE     ---       ring_close
      01002D0CH   PUBLIC    CODE     ---       ring_init
      000000E3H   SFRSYM    DATA     BYTE      LXDAT
      000000C4H   SFRSYM    DATA     BYTE      TKCHS
      00000080H   SFRSYM    DATA     BYTE      P0
      000000C1H   SFRSYM    DATA     BYTE      TKCON
      00000090H   SFRSYM    DATA     BYTE      P1
      000000A0H   SFRSYM    DATA     BYTE      P2
      000000C0H.0 SFRSYM    DATA     BIT       is_busy
      000000C0H.6 SFRSYM    DATA     BIT       MOTOR_SWITCH_ADC_GPIO
      000000B0H   SFRSYM    DATA     BYTE      P3
      000000C0H.2 SFRSYM    DATA     BIT       DC_5V_GPIO
      000000D0H.6 SFRSYM    DATA     BIT       AC
      000000C0H   SFRSYM    DATA     BYTE      P4
      000000D8H   SFRSYM    DATA     BYTE      P5
      000000A5H   SFRSYM    DATA     BYTE      SPCON
      000000A8H.7 SFRSYM    DATA     BIT       EA
      000000E1H   SFRSYM    DATA     BYTE      LXCON
      000000A9H   SFRSYM    DATA     BYTE      P6
      000000C8H.0 SFRSYM    DATA     BIT       T2P0
      000000D9H   SFRSYM    DATA     BYTE      P7
      000000C8H.1 SFRSYM    DATA     BIT       T2P1
      000000F1H   SFRSYM    DATA     BYTE      RTCON
      000000C8H.4 SFRSYM    DATA     BIT       T2R0
      000000DAH   SFRSYM    DATA     BYTE      PWMEN
      000000CFH   SFRSYM    DATA     BYTE      TKMSH
      00000086H   SFRSYM    DATA     BYTE      PWCON
      000000C8H.5 SFRSYM    DATA     BIT       T2R1
      000000C0H.2 SFRSYM    DATA     BIT       dc_5v_in
      000000CEH   SFRSYM    DATA     BYTE      TKMSL
      000000A7H   SFRSYM    DATA     BYTE      SPSTA
      00000083H   SFRSYM    DATA     BYTE      DP0H
      000000A8H   SFRSYM    DATA     BYTE      IE
      00000085H   SFRSYM    DATA     BYTE      DP1H
      000000E9H   SFRSYM    DATA     BYTE      RTCSS
      00000082H   SFRSYM    DATA     BYTE      DP0L
      000000C0H.1 SFRSYM    DATA     BIT       BAT_ADC_GPIO
      000000CBH   SFRSYM    DATA     BYTE      T2CH
      000000B3H   SFRSYM    DATA     BYTE      I2CADM
      00000084H   SFRSYM    DATA     BYTE      DP1L
      000000C8H.3 SFRSYM    DATA     BIT       T2IE
      000000C3H   SFRSYM    DATA     BYTE      TKMTS
      000000C0H.7 SFRSYM    DATA     BIT       MODE_SWITCH_ADC_GPIO
      000000CAH   SFRSYM    DATA     BYTE      T2CL
      000000B2H   SFRSYM    DATA     BYTE      I2CADR
      000000B4H   SFRSYM    DATA     BYTE      I2CCCR
      000000B8H   SFRSYM    DATA     BYTE      IP
      000000B7H   SFRSYM    DATA     BYTE      I2CFLG
      000000B5H   SFRSYM    DATA     BYTE      I2CDAT
      000000EDH   SFRSYM    DATA     BYTE      RTMSS
      000000D0H.7 SFRSYM    DATA     BIT       CY
      000000BBH   SFRSYM    DATA     BYTE      ADCFGH
      000000DCH   SFRSYM    DATA     BYTE      PWMCMAX
      000000B1H   SFRSYM    DATA     BYTE      I2CCON
      000000D1H   SFRSYM    DATA     BYTE      PWMDIVH
      000000BAH   SFRSYM    DATA     BYTE      ADCFGL
      00000081H   SFRSYM    DATA     BYTE      SP
      000000F9H   SFRSYM    DATA     BYTE      EPIE
      000000D0H.2 SFRSYM    DATA     BIT       OV
      000000FAH   SFRSYM    DATA     BYTE      EPIF
      000000DFH   SFRSYM    DATA     BYTE      PWMDIVL
LX51 LINKER/LOCATER V4.66.97.0                                                        04/10/2021  13:15:07  PAGE 74


      000000B6H   SFRSYM    DATA     BYTE      I2CSTA
      000000E8H   SFRSYM    DATA     BYTE      EXIE
      000000D3H   SFRSYM    DATA     BYTE      PWMDUTH
      000000C7H   SFRSYM    DATA     BYTE      TKIF
      0000008FH   SFRSYM    DATA     BYTE      IT0CON
      00000080H.0 SFRSYM    DATA     BIT       P00
      000000ECH   SFRSYM    DATA     BYTE      RTAH
      000000D2H   SFRSYM    DATA     BYTE      PWMDUTL
      0000008EH   SFRSYM    DATA     BYTE      IT1CON
      00000090H.0 SFRSYM    DATA     BIT       P10
      00000080H.1 SFRSYM    DATA     BIT       P01
      0000009DH   SFRSYM    DATA     BYTE      S1RELH
      00000087H   SFRSYM    DATA     BYTE      PCON
      000000A0H.0 SFRSYM    DATA     BIT       P20
      00000090H.1 SFRSYM    DATA     BIT       P11
      00000080H.2 SFRSYM    DATA     BIT       P02
      000000E8H.0 SFRSYM    DATA     BIT       INT2EN
      000000F4H   SFRSYM    DATA     BYTE      RTCH
      000000A4H   SFRSYM    DATA     BYTE      S2RELH
      000000B0H.2 SFRSYM    DATA     BIT       LED_SW_MOD_GPIO
      000000B0H.0 SFRSYM    DATA     BIT       P30
      000000A0H.1 SFRSYM    DATA     BIT       P21
      00000090H.2 SFRSYM    DATA     BIT       P12
      00000080H.3 SFRSYM    DATA     BIT       P03
      000000E8H.1 SFRSYM    DATA     BIT       INT3EN
      000000C0H.0 SFRSYM    DATA     BIT       P40
      000000B0H.1 SFRSYM    DATA     BIT       P31
      000000A0H.2 SFRSYM    DATA     BIT       P22
      00000090H.3 SFRSYM    DATA     BIT       P13
      00000080H.4 SFRSYM    DATA     BIT       P04
      000000E8H.2 SFRSYM    DATA     BIT       INT4EN
      000000D8H.0 SFRSYM    DATA     BIT       P50
      000000C0H.1 SFRSYM    DATA     BIT       P41
      000000B0H.2 SFRSYM    DATA     BIT       P32
      000000A0H.3 SFRSYM    DATA     BIT       P23
      00000090H.4 SFRSYM    DATA     BIT       P14
      00000080H.5 SFRSYM    DATA     BIT       P05
      000000E8H.3 SFRSYM    DATA     BIT       INT5EN
      000000EBH   SFRSYM    DATA     BYTE      RTAM
      0000009CH   SFRSYM    DATA     BYTE      S1RELL
      00000089H   SFRSYM    DATA     BYTE      TMOD
      00000088H   SFRSYM    DATA     BYTE      TCON
      000000D8H.1 SFRSYM    DATA     BIT       P51
      000000C0H.2 SFRSYM    DATA     BIT       P42
      000000B0H.3 SFRSYM    DATA     BIT       P33
      000000A0H.4 SFRSYM    DATA     BIT       P24
      00000090H.5 SFRSYM    DATA     BIT       P15
      00000080H.6 SFRSYM    DATA     BIT       P06
      000000E8H.4 SFRSYM    DATA     BIT       INT6EN
      000000A3H   SFRSYM    DATA     BYTE      S2RELL
      000000D8H.2 SFRSYM    DATA     BIT       P52
      000000C0H.3 SFRSYM    DATA     BIT       P43
      000000B0H.4 SFRSYM    DATA     BIT       P34
      000000A0H.5 SFRSYM    DATA     BIT       P25
      00000090H.6 SFRSYM    DATA     BIT       P16
      00000080H.7 SFRSYM    DATA     BIT       P07
      000000E8H.5 SFRSYM    DATA     BIT       INT7EN
      000000C8H.2 SFRSYM    DATA     BIT       UCKS
      000000F8H   SFRSYM    DATA     BYTE      EXIP
      000000F3H   SFRSYM    DATA     BYTE      RTCM
      000000D8H.3 SFRSYM    DATA     BIT       P53
      000000C0H.4 SFRSYM    DATA     BIT       P44
      000000B0H.5 SFRSYM    DATA     BIT       P35
      000000A0H.6 SFRSYM    DATA     BIT       P26
      00000090H.7 SFRSYM    DATA     BIT       P17
LX51 LINKER/LOCATER V4.66.97.0                                                        04/10/2021  13:15:07  PAGE 75


      000000E8H.6 SFRSYM    DATA     BIT       INT8EN
      000000D8H.4 SFRSYM    DATA     BIT       P54
      000000C0H.5 SFRSYM    DATA     BIT       P45
      000000B0H.6 SFRSYM    DATA     BIT       P36
      000000A0H.7 SFRSYM    DATA     BIT       P27
      000000E8H.7 SFRSYM    DATA     BIT       INT9EN
      000000D8H.5 SFRSYM    DATA     BIT       P55
      000000C0H.6 SFRSYM    DATA     BIT       P46
      000000B0H.7 SFRSYM    DATA     BIT       P37
      000000D8H.6 SFRSYM    DATA     BIT       P56
      000000C0H.7 SFRSYM    DATA     BIT       P47
      000000EAH   SFRSYM    DATA     BYTE      RTAS
      000000AFH   SFRSYM    DATA     BYTE      HVTH
      00000095H   SFRSYM    DATA     BYTE      RCTAGH
      000000D8H.7 SFRSYM    DATA     BIT       P57
      000000F2H   SFRSYM    DATA     BYTE      RTCS
      00000088H.1 SFRSYM    DATA     BIT       IE0
      00000088H.3 SFRSYM    DATA     BIT       IE1
      00000094H   SFRSYM    DATA     BYTE      RCTAGL
      000000F0H   SFRSYM    DATA     BYTE      B
      000000E7H   SFRSYM    DATA     BYTE      MDUDAT
      000000C0H.0 SFRSYM    DATA     BIT       busy
      000000DEH   SFRSYM    DATA     BYTE      PWMCFG
      000000D4H   SFRSYM    DATA     BYTE      PWMAIF
      000000E0H   SFRSYM    DATA     BYTE      ACC
      000000D5H   SFRSYM    DATA     BYTE      PWMBIF
      0000009FH   SFRSYM    DATA     BYTE      RCMSHH
      000000A8H.4 SFRSYM    DATA     BIT       ES0
      000000EFH   SFRSYM    DATA     BYTE      LVDCON
      000000E6H   SFRSYM    DATA     BYTE      MDUCON
      000000D6H   SFRSYM    DATA     BYTE      PWMCIF
      000000A8H.1 SFRSYM    DATA     BIT       ET0
      000000A8H.6 SFRSYM    DATA     BIT       ES1
      000000D7H   SFRSYM    DATA     BYTE      PWMDIF
      000000A8H.3 SFRSYM    DATA     BIT       ET1
      00000088H.5 SFRSYM    DATA     BIT       TF0
      000000FDH   SFRSYM    DATA     BYTE      IDLSTH
      000000AEH   SFRSYM    DATA     BYTE      PLLCON
      000000A8H.5 SFRSYM    DATA     BIT       ET2
      00000098H.0 SFRSYM    DATA     BIT       RI0
      00000088H.7 SFRSYM    DATA     BIT       TF1
      0000009EH   SFRSYM    DATA     BYTE      RCMSHL
      00000097H   SFRSYM    DATA     BYTE      RCMSLH
      000000C8H.7 SFRSYM    DATA     BIT       TF2
      00000098H.2 SFRSYM    DATA     BIT       RB8
      0000008CH   SFRSYM    DATA     BYTE      TH0
      000000A8H.0 SFRSYM    DATA     BIT       EX0
      00000098H.1 SFRSYM    DATA     BIT       TI0
      00000088H.0 SFRSYM    DATA     BIT       IT0
      0000008DH   SFRSYM    DATA     BYTE      TH1
      000000A8H.2 SFRSYM    DATA     BIT       EX1
      00000098H.3 SFRSYM    DATA     BIT       TB8
      00000088H.2 SFRSYM    DATA     BIT       IT1
      000000FCH   SFRSYM    DATA     BYTE      IDLSTL
      000000CDH   SFRSYM    DATA     BYTE      TH2
      000000D0H.0 SFRSYM    DATA     BIT       P
      00000096H   SFRSYM    DATA     BYTE      RCMSLL
      00000098H.7 SFRSYM    DATA     BIT       SM0
      0000008AH   SFRSYM    DATA     BYTE      TL0
      00000098H.6 SFRSYM    DATA     BIT       SM1
      000000E5H   SFRSYM    DATA     BYTE      LXDIVH
      0000008BH   SFRSYM    DATA     BYTE      TL1
      000000D8H.4 SFRSYM    DATA     BIT       BL_CTL
      00000098H.5 SFRSYM    DATA     BIT       SM2
      000000CCH   SFRSYM    DATA     BYTE      TL2
LX51 LINKER/LOCATER V4.66.97.0                                                        04/10/2021  13:15:07  PAGE 76


      000000B8H.4 SFRSYM    DATA     BIT       PS0
      000000B8H.1 SFRSYM    DATA     BIT       PT0
      000000B8H.6 SFRSYM    DATA     BIT       PS1
      000000B8H.3 SFRSYM    DATA     BIT       PT1
      000000D0H.3 SFRSYM    DATA     BIT       RS0
      000000E4H   SFRSYM    DATA     BYTE      LXDIVL
      000000BDH   SFRSYM    DATA     BYTE      ADCDH
      000000B8H.5 SFRSYM    DATA     BIT       PT2
      00000088H.4 SFRSYM    DATA     BIT       TR0
      000000D0H.4 SFRSYM    DATA     BIT       RS1
      000000DDH   SFRSYM    DATA     BYTE      PWMCON
      00000088H.6 SFRSYM    DATA     BIT       TR1
      000000ADH   SFRSYM    DATA     BYTE      WDVTHH
      000000C8H.6 SFRSYM    DATA     BIT       TR2
      000000B8H.0 SFRSYM    DATA     BIT       PX0
      000000B8H.2 SFRSYM    DATA     BIT       PX1
      000000BCH   SFRSYM    DATA     BYTE      ADCDL
      000000ACH   SFRSYM    DATA     BYTE      WDVTHL
      000000DBH   SFRSYM    DATA     BYTE      PWMUPD
      000000C0H.5 SFRSYM    DATA     BIT       KEY_AD_GPIO
      00000099H   SFRSYM    DATA     BYTE      S0BUF
      0000009BH   SFRSYM    DATA     BYTE      S1BUF
      000000D8H.4 SFRSYM    DATA     BIT       BL_CTL_GPIO
      000000A2H   SFRSYM    DATA     BYTE      S2BUF
      00000098H   SFRSYM    DATA     BYTE      S0CON
      00000098H.4 SFRSYM    DATA     BIT       REN
      0000009AH   SFRSYM    DATA     BYTE      S1CON
      000000B9H   SFRSYM    DATA     BYTE      ADCON
      000000A1H   SFRSYM    DATA     BYTE      S2CON
      000000D0H.1 SFRSYM    DATA     BIT       DPS
      000000C9H   SFRSYM    DATA     BYTE      T2MOD
      000000C8H   SFRSYM    DATA     BYTE      T2CON
      000000FFH   SFRSYM    DATA     BYTE      STPSTH
      000000BFH   SFRSYM    DATA     BYTE      CKMIF
      000000FEH   SFRSYM    DATA     BYTE      STPSTL
      000000C2H   SFRSYM    DATA     BYTE      TKCFG
      00000093H   SFRSYM    DATA     BYTE      VCKDH
      000000B0H.3 SFRSYM    DATA     BIT       motor_a
      000000D0H.5 SFRSYM    DATA     BIT       F0
      000000E2H   SFRSYM    DATA     BYTE      LXCFG
      000000ABH   SFRSYM    DATA     BYTE      WDFLG
      00000092H   SFRSYM    DATA     BYTE      VCKDL
      000000B0H.7 SFRSYM    DATA     BIT       motor_b
      000000FBH   SFRSYM    DATA     BYTE      EPCON
      000000F6H   SFRSYM    DATA     BYTE      RTCDH
      000000C6H   SFRSYM    DATA     BYTE      ATKMH
      00000091H   SFRSYM    DATA     BYTE      RCCON
      000000F7H   SFRSYM    DATA     BYTE      INDEX
      000000EEH   SFRSYM    DATA     BYTE      RTCIF
      000000BEH   SFRSYM    DATA     BYTE      CKMON
      000000F5H   SFRSYM    DATA     BYTE      RTCDL
      000000D0H   SFRSYM    DATA     BYTE      PSW
      000000C5H   SFRSYM    DATA     BYTE      ATKML
      000000AAH   SFRSYM    DATA     BYTE      WDCON
      000000A6H   SFRSYM    DATA     BYTE      SPDAT
      02000245H   SYMBOL    XDATA    BYTE      spk_cmd_step
      02000247H   SYMBOL    XDATA    BYTE      spk_time_cnt
      0100000EH   SYMBOL    CODE     ---       ring_vol_ad_init
      0200024CH   SYMBOL    XDATA    WORD      before_ring_vol_AD_value
      0200024EH   SYMBOL    XDATA    ---       vol_level_percent_array
      0200026CH   SYMBOL    XDATA    WORD      current_ring_vol_AD_value
      01001374H   SYMBOL    CODE     ---       get_current_vol_level
      02000272H   SYMBOL    XDATA    WORD      max_ring_vol_AD_value
      02000277H   SYMBOL    XDATA    BYTE      cmd_bit_cnt

LX51 LINKER/LOCATER V4.66.97.0                                                        04/10/2021  13:15:07  PAGE 77


      0100000EH   BLOCK     CODE     ---       LVL=0
      0100000EH   LINE      CODE     ---       #59
      0100000EH   LINE      CODE     ---       #60
      0100000EH   LINE      CODE     ---       #61
      01000014H   LINE      CODE     ---       #62
      01000017H   LINE      CODE     ---       #64
      0100001AH   LINE      CODE     ---       #65
      ---         BLOCKEND  ---      ---       LVL=0

      01002D0CH   BLOCK     CODE     ---       LVL=0
      01002D0CH   LINE      CODE     ---       #76
      01002D0CH   LINE      CODE     ---       #77
      01002D0CH   LINE      CODE     ---       #78
      01002D12H   LINE      CODE     ---       #79
      01002D17H   LINE      CODE     ---       #80
      01002D1BH   LINE      CODE     ---       #81
      01002D1FH   LINE      CODE     ---       #82
      01002D23H   LINE      CODE     ---       #89
      01002D26H   LINE      CODE     ---       #90
      01002D29H   LINE      CODE     ---       #92
      01002D2CH   LINE      CODE     ---       #93
      01002D2FH   LINE      CODE     ---       #96
      01002D32H   LINE      CODE     ---       #97
      01002D3FH   LINE      CODE     ---       #98
      01002D4CH   LINE      CODE     ---       #99
      01002D4CH   LINE      CODE     ---       #100
      01002D5BH   LINE      CODE     ---       #101
      01002D5BH   LINE      CODE     ---       #102
      01002D6AH   LINE      CODE     ---       #104
      01002D72H   LINE      CODE     ---       #106
      ---         BLOCKEND  ---      ---       LVL=0

      01003AD1H   BLOCK     CODE     ---       LVL=0
      01003AD1H   LINE      CODE     ---       #109
      01003AD1H   LINE      CODE     ---       #110
      01003AD1H   LINE      CODE     ---       #112
      01003AD6H   LINE      CODE     ---       #113
      01003AD9H   LINE      CODE     ---       #114
      01003ADCH   LINE      CODE     ---       #115
      01003AE0H   LINE      CODE     ---       #116
      01003AE4H   LINE      CODE     ---       #117
      01003AE7H   LINE      CODE     ---       #118
      01003AEAH   LINE      CODE     ---       #120
      ---         BLOCKEND  ---      ---       LVL=0

      01001374H   BLOCK     CODE     ---       LVL=0
      01001374H   BLOCK     CODE     NEAR LAB  LVL=1
      02000002H   SYMBOL    XDATA    FLOAT     temp_value
      02000006H   SYMBOL    XDATA    FLOAT     temp_level
      0200000AH   SYMBOL    XDATA    WORD      _level
      0200000CH   SYMBOL    XDATA    BYTE      i
      0200000DH   SYMBOL    XDATA    WORD      dvalue
      0200000FH   SYMBOL    XDATA    WORD      dvalue_min
      02000011H   SYMBOL    XDATA    BYTE      dvalue_min_index
      ---         BLOCKEND  ---      ---       LVL=1
      01001374H   LINE      CODE     ---       #131
      01001374H   LINE      CODE     ---       #132
      01001374H   LINE      CODE     ---       #133
      0100137EH   LINE      CODE     ---       #134
      01001388H   LINE      CODE     ---       #135
      0100138FH   LINE      CODE     ---       #136
      01001391H   LINE      CODE     ---       #137
      01001395H   LINE      CODE     ---       #138
      0100139CH   LINE      CODE     ---       #139
      0100139FH   LINE      CODE     ---       #141
LX51 LINKER/LOCATER V4.66.97.0                                                        04/10/2021  13:15:07  PAGE 78


      010013ACH   LINE      CODE     ---       #142
      010013ACH   LINE      CODE     ---       #143
      010013C8H   LINE      CODE     ---       #144
      010013F0H   LINE      CODE     ---       #145
      01001413H   LINE      CODE     ---       #146
      01001435H   LINE      CODE     ---       #149
      01001446H   LINE      CODE     ---       #150
      01001446H   LINE      CODE     ---       #151
      0100146AH   LINE      CODE     ---       #152
      01001477H   LINE      CODE     ---       #153
      01001477H   LINE      CODE     ---       #154
      0100147FH   LINE      CODE     ---       #155
      0100148CH   LINE      CODE     ---       #156
      0100148CH   LINE      CODE     ---       #157
      01001494H   LINE      CODE     ---       #158
      0100149AH   LINE      CODE     ---       #159
      0100149EH   LINE      CODE     ---       #160
      0100149EH   LINE      CODE     ---       #161
      010014A3H   LINE      CODE     ---       #162
      ---         BLOCKEND  ---      ---       LVL=0

      0100246CH   BLOCK     CODE     ---       LVL=0
      0100246CH   BLOCK     CODE     NEAR LAB  LVL=1
      02000000H   SYMBOL    XDATA    WORD      ring_vol_AD_differ_value
      ---         BLOCKEND  ---      ---       LVL=1
      0100246CH   LINE      CODE     ---       #173
      0100246CH   LINE      CODE     ---       #174
      0100246CH   LINE      CODE     ---       #176
      01002473H   LINE      CODE     ---       #181
      01002480H   LINE      CODE     ---       #184
      01002483H   LINE      CODE     ---       #185
      01002483H   LINE      CODE     ---       #186
      01002489H   LINE      CODE     ---       #187
      0100248AH   LINE      CODE     ---       #190
      0100248AH   LINE      CODE     ---       #191
      010024A5H   LINE      CODE     ---       #193
      010024ADH   LINE      CODE     ---       #194
      010024ADH   LINE      CODE     ---       #195
      010024C3H   LINE      CODE     ---       #196
      010024C3H   LINE      CODE     ---       #198
      010024C3H   LINE      CODE     ---       #200
      010024C3H   LINE      CODE     ---       #201
      010024D2H   LINE      CODE     ---       #202
      010024D2H   LINE      CODE     ---       #203
      010024DBH   LINE      CODE     ---       #204
      010024DBH   LINE      CODE     ---       #205
      010024E3H   LINE      CODE     ---       #206
      010024E3H   LINE      CODE     ---       #207
      010024E3H   LINE      CODE     ---       #208
      010024E3H   LINE      CODE     ---       #209
      010024EBH   LINE      CODE     ---       #210
      010024FAH   LINE      CODE     ---       #212
      010024FAH   LINE      CODE     ---       #213
      010024FAH   LINE      CODE     ---       #214
      ---         BLOCKEND  ---      ---       LVL=0

      01003456H   BLOCK     CODE     ---       LVL=0
      00000007H   SYMBOL    DATA     BYTE      CMD
      01003456H   LINE      CODE     ---       #244
      01003456H   LINE      CODE     ---       #245
      01003456H   LINE      CODE     ---       #246
      0100345CH   LINE      CODE     ---       #247
      0100345CH   LINE      CODE     ---       #248
      0100345FH   LINE      CODE     ---       #249
      01003462H   LINE      CODE     ---       #250
LX51 LINKER/LOCATER V4.66.97.0                                                        04/10/2021  13:15:07  PAGE 79


      01003467H   LINE      CODE     ---       #251
      0100346DH   LINE      CODE     ---       #252
      01003472H   LINE      CODE     ---       #254
      01003478H   LINE      CODE     ---       #256
      0100347EH   LINE      CODE     ---       #257
      01003483H   LINE      CODE     ---       #264
      01003486H   LINE      CODE     ---       #265
      01003489H   LINE      CODE     ---       #267
      0100348BH   LINE      CODE     ---       #268
      0100348DH   LINE      CODE     ---       #269
      01003492H   LINE      CODE     ---       #270
      01003492H   LINE      CODE     ---       #271
      01003498H   LINE      CODE     ---       #272
      01003498H   LINE      CODE     ---       #273
      01003498H   LINE      CODE     ---       #274
      ---         BLOCKEND  ---      ---       LVL=0

      01001C37H   BLOCK     CODE     ---       LVL=0
      01001C37H   LINE      CODE     ---       #290
      01001C37H   LINE      CODE     ---       #291
      01001C37H   LINE      CODE     ---       #292
      01001C40H   LINE      CODE     ---       #293
      01001C40H   LINE      CODE     ---       #294
      01001C44H   LINE      CODE     ---       #295
      01001C44H   LINE      CODE     ---       #296
      01001C46H   LINE      CODE     ---       #297
      01001C46H   LINE      CODE     ---       #299
      01001C5AH   LINE      CODE     ---       #300
      01001C5AH   LINE      CODE     ---       #301
      01001C5AH   LINE      CODE     ---       #302
      01001C5AH   LINE      CODE     ---       #303
      01001C63H   LINE      CODE     ---       #304
      01001C63H   LINE      CODE     ---       #305
      01001C68H   LINE      CODE     ---       #306
      01001C68H   LINE      CODE     ---       #307
      01001C68H   LINE      CODE     ---       #308
      01001C69H   LINE      CODE     ---       #310
      01001C69H   LINE      CODE     ---       #311
      01001C69H   LINE      CODE     ---       #312
      01001C72H   LINE      CODE     ---       #313
      01001C72H   LINE      CODE     ---       #314
      01001C92H   LINE      CODE     ---       #315
      01001C92H   LINE      CODE     ---       #316
      01001C95H   LINE      CODE     ---       #317
      01001C97H   LINE      CODE     ---       #319
      01001C97H   LINE      CODE     ---       #320
      01001C9AH   LINE      CODE     ---       #321
      01001C9AH   LINE      CODE     ---       #322
      01001C9DH   LINE      CODE     ---       #323
      01001CA3H   LINE      CODE     ---       #324
      01001CA9H   LINE      CODE     ---       #325
      01001CA9H   LINE      CODE     ---       #327
      01001CA9H   LINE      CODE     ---       #328
      01001CAAH   LINE      CODE     ---       #330
      01001CAAH   LINE      CODE     ---       #331
      01001CAAH   LINE      CODE     ---       #332
      01001CB0H   LINE      CODE     ---       #333
      01001CB0H   LINE      CODE     ---       #334
      01001CB6H   LINE      CODE     ---       #335
      01001CBCH   LINE      CODE     ---       #336
      01001CC1H   LINE      CODE     ---       #337
      01001CC4H   LINE      CODE     ---       #339
      01001CC4H   LINE      CODE     ---       #341
      01001CC4H   LINE      CODE     ---       #342
      01001CC5H   LINE      CODE     ---       #344
LX51 LINKER/LOCATER V4.66.97.0                                                        04/10/2021  13:15:07  PAGE 80


      01001CC5H   LINE      CODE     ---       #345
      01001CC5H   LINE      CODE     ---       #346
      01001CCBH   LINE      CODE     ---       #347
      01001CCBH   LINE      CODE     ---       #348
      01001CD8H   LINE      CODE     ---       #349
      01001CD8H   LINE      CODE     ---       #350
      01001CDAH   LINE      CODE     ---       #351
      01001CDEH   LINE      CODE     ---       #352
      01001CE2H   LINE      CODE     ---       #355
      01001CEAH   LINE      CODE     ---       #356
      01001CEAH   LINE      CODE     ---       #357
      01001CEDH   LINE      CODE     ---       #360
      01001CEDH   LINE      CODE     ---       #370
      01001CEEH   LINE      CODE     ---       #372
      01001CEEH   LINE      CODE     ---       #373
      01001CF4H   LINE      CODE     ---       #374
      01001CF4H   LINE      CODE     ---       #375
      01001CF4H   LINE      CODE     ---       #376
      01001CF4H   LINE      CODE     ---       #377
      01001CF4H   LINE      CODE     ---       #378
      01001CF4H   LINE      CODE     ---       #379
      01001CF4H   LINE      CODE     ---       #380
      01001CF4H   LINE      CODE     ---       #381
      ---         BLOCKEND  ---      ---       LVL=0

      0100351DH   BLOCK     CODE     ---       LVL=0
      0100351DH   LINE      CODE     ---       #441
      0100351DH   LINE      CODE     ---       #442
      0100351DH   LINE      CODE     ---       #443
      01003520H   LINE      CODE     ---       #444
      01003520H   LINE      CODE     ---       #445
      01003526H   LINE      CODE     ---       #446
      01003526H   LINE      CODE     ---       #447
      0100352CH   LINE      CODE     ---       #448
      0100352CH   LINE      CODE     ---       #449
      01003534H   LINE      CODE     ---       #450
      01003534H   LINE      CODE     ---       #451
      0100353CH   LINE      CODE     ---       #452
      0100353CH   LINE      CODE     ---       #453
      01003544H   LINE      CODE     ---       #454
      01003544H   LINE      CODE     ---       #455
      01003551H   LINE      CODE     ---       #456
      01003551H   LINE      CODE     ---       #457
      01003557H   LINE      CODE     ---       #458
      0100355CH   LINE      CODE     ---       #459
      0100355CH   LINE      CODE     ---       #460
      0100355CH   LINE      CODE     ---       #462
      0100355CH   LINE      CODE     ---       #463
      ---         BLOCKEND  ---      ---       LVL=0

      01003AEBH   BLOCK     CODE     ---       LVL=0
      01003AEBH   LINE      CODE     ---       #468
      01003AEBH   LINE      CODE     ---       #469
      01003AEBH   LINE      CODE     ---       #471
      01003AF3H   LINE      CODE     ---       #472
      01003AF3H   LINE      CODE     ---       #480
      01003AF6H   LINE      CODE     ---       #481
      01003AF6H   LINE      CODE     ---       #482
      01003AFBH   LINE      CODE     ---       #483
      01003B00H   LINE      CODE     ---       #484
      01003B04H   LINE      CODE     ---       #485
      01003B04H   LINE      CODE     ---       #487
      01003B04H   LINE      CODE     ---       #488
      ---         BLOCKEND  ---      ---       LVL=0

LX51 LINKER/LOCATER V4.66.97.0                                                        04/10/2021  13:15:07  PAGE 81


      ---         MODULE    ---      ---       TIMER
      020002EDH   PUBLIC    XDATA    BYTE      flag_200ms
      020002ECH   PUBLIC    XDATA    BYTE      flag_100ms
      020002EAH   PUBLIC    XDATA    WORD      g_timer0_20ms_cnt
      020002E8H   PUBLIC    XDATA    WORD      g_timer0_10ms_cnt
      020002E6H   PUBLIC    XDATA    WORD      g_timer0_2s_cnt
      020002E5H   PUBLIC    XDATA    BYTE      flag_50ms
      020002E4H   PUBLIC    XDATA    BYTE      flag_20ms
      020002E3H   PUBLIC    XDATA    BYTE      flag_10ms
      020002E1H   PUBLIC    XDATA    WORD      g_timer0_5ms_cnt
      020002E0H   PUBLIC    XDATA    BYTE      flag_2s
      020002DEH   PUBLIC    XDATA    WORD      g_timer0_200ms_cnt
      01003B48H   PUBLIC    CODE     ---       timer_init
      000000E3H   SFRSYM    DATA     BYTE      LXDAT
      000000C4H   SFRSYM    DATA     BYTE      TKCHS
      00000080H   SFRSYM    DATA     BYTE      P0
      000000C1H   SFRSYM    DATA     BYTE      TKCON
      00000090H   SFRSYM    DATA     BYTE      P1
      000000A0H   SFRSYM    DATA     BYTE      P2
      000000C0H.6 SFRSYM    DATA     BIT       MOTOR_SWITCH_ADC_GPIO
      000000C0H.0 SFRSYM    DATA     BIT       is_busy
      000000B0H   SFRSYM    DATA     BYTE      P3
      000000C0H.2 SFRSYM    DATA     BIT       DC_5V_GPIO
      000000D0H.6 SFRSYM    DATA     BIT       AC
      000000C0H   SFRSYM    DATA     BYTE      P4
      000000D8H   SFRSYM    DATA     BYTE      P5
      000000A5H   SFRSYM    DATA     BYTE      SPCON
      000000A8H.7 SFRSYM    DATA     BIT       EA
      000000E1H   SFRSYM    DATA     BYTE      LXCON
      000000A9H   SFRSYM    DATA     BYTE      P6
      000000C8H.0 SFRSYM    DATA     BIT       T2P0
      000000D9H   SFRSYM    DATA     BYTE      P7
      000000C8H.1 SFRSYM    DATA     BIT       T2P1
      000000F1H   SFRSYM    DATA     BYTE      RTCON
      000000C8H.4 SFRSYM    DATA     BIT       T2R0
      000000DAH   SFRSYM    DATA     BYTE      PWMEN
      000000CFH   SFRSYM    DATA     BYTE      TKMSH
      00000086H   SFRSYM    DATA     BYTE      PWCON
      000000C8H.5 SFRSYM    DATA     BIT       T2R1
      000000C0H.2 SFRSYM    DATA     BIT       dc_5v_in
      000000CEH   SFRSYM    DATA     BYTE      TKMSL
      000000A7H   SFRSYM    DATA     BYTE      SPSTA
      00000083H   SFRSYM    DATA     BYTE      DP0H
      000000A8H   SFRSYM    DATA     BYTE      IE
      00000085H   SFRSYM    DATA     BYTE      DP1H
      000000E9H   SFRSYM    DATA     BYTE      RTCSS
      00000082H   SFRSYM    DATA     BYTE      DP0L
      000000C0H.1 SFRSYM    DATA     BIT       BAT_ADC_GPIO
      000000CBH   SFRSYM    DATA     BYTE      T2CH
      000000B3H   SFRSYM    DATA     BYTE      I2CADM
      00000084H   SFRSYM    DATA     BYTE      DP1L
      000000C8H.3 SFRSYM    DATA     BIT       T2IE
      000000C3H   SFRSYM    DATA     BYTE      TKMTS
      000000C0H.7 SFRSYM    DATA     BIT       MODE_SWITCH_ADC_GPIO
      000000CAH   SFRSYM    DATA     BYTE      T2CL
      000000B2H   SFRSYM    DATA     BYTE      I2CADR
      000000B4H   SFRSYM    DATA     BYTE      I2CCCR
      000000B8H   SFRSYM    DATA     BYTE      IP
      000000B7H   SFRSYM    DATA     BYTE      I2CFLG
      000000B5H   SFRSYM    DATA     BYTE      I2CDAT
      000000EDH   SFRSYM    DATA     BYTE      RTMSS
      000000D0H.7 SFRSYM    DATA     BIT       CY
      000000BBH   SFRSYM    DATA     BYTE      ADCFGH
      000000DCH   SFRSYM    DATA     BYTE      PWMCMAX
      000000B1H   SFRSYM    DATA     BYTE      I2CCON
LX51 LINKER/LOCATER V4.66.97.0                                                        04/10/2021  13:15:07  PAGE 82


      000000D1H   SFRSYM    DATA     BYTE      PWMDIVH
      000000BAH   SFRSYM    DATA     BYTE      ADCFGL
      00000081H   SFRSYM    DATA     BYTE      SP
      000000F9H   SFRSYM    DATA     BYTE      EPIE
      000000D0H.2 SFRSYM    DATA     BIT       OV
      000000FAH   SFRSYM    DATA     BYTE      EPIF
      000000DFH   SFRSYM    DATA     BYTE      PWMDIVL
      000000B6H   SFRSYM    DATA     BYTE      I2CSTA
      000000E8H   SFRSYM    DATA     BYTE      EXIE
      000000D3H   SFRSYM    DATA     BYTE      PWMDUTH
      000000C7H   SFRSYM    DATA     BYTE      TKIF
      0000008FH   SFRSYM    DATA     BYTE      IT0CON
      00000080H.0 SFRSYM    DATA     BIT       P00
      000000ECH   SFRSYM    DATA     BYTE      RTAH
      000000D2H   SFRSYM    DATA     BYTE      PWMDUTL
      0000008EH   SFRSYM    DATA     BYTE      IT1CON
      00000090H.0 SFRSYM    DATA     BIT       P10
      00000080H.1 SFRSYM    DATA     BIT       P01
      0000009DH   SFRSYM    DATA     BYTE      S1RELH
      00000087H   SFRSYM    DATA     BYTE      PCON
      000000A0H.0 SFRSYM    DATA     BIT       P20
      00000090H.1 SFRSYM    DATA     BIT       P11
      00000080H.2 SFRSYM    DATA     BIT       P02
      000000E8H.0 SFRSYM    DATA     BIT       INT2EN
      000000F4H   SFRSYM    DATA     BYTE      RTCH
      000000A4H   SFRSYM    DATA     BYTE      S2RELH
      000000B0H.2 SFRSYM    DATA     BIT       LED_SW_MOD_GPIO
      000000B0H.0 SFRSYM    DATA     BIT       P30
      000000A0H.1 SFRSYM    DATA     BIT       P21
      00000090H.2 SFRSYM    DATA     BIT       P12
      00000080H.3 SFRSYM    DATA     BIT       P03
      000000E8H.1 SFRSYM    DATA     BIT       INT3EN
      000000C0H.0 SFRSYM    DATA     BIT       P40
      000000B0H.1 SFRSYM    DATA     BIT       P31
      000000A0H.2 SFRSYM    DATA     BIT       P22
      00000090H.3 SFRSYM    DATA     BIT       P13
      00000080H.4 SFRSYM    DATA     BIT       P04
      000000E8H.2 SFRSYM    DATA     BIT       INT4EN
      000000D8H.0 SFRSYM    DATA     BIT       P50
      000000C0H.1 SFRSYM    DATA     BIT       P41
      000000B0H.2 SFRSYM    DATA     BIT       P32
      000000A0H.3 SFRSYM    DATA     BIT       P23
      00000090H.4 SFRSYM    DATA     BIT       P14
      00000080H.5 SFRSYM    DATA     BIT       P05
      000000E8H.3 SFRSYM    DATA     BIT       INT5EN
      000000EBH   SFRSYM    DATA     BYTE      RTAM
      0000009CH   SFRSYM    DATA     BYTE      S1RELL
      00000089H   SFRSYM    DATA     BYTE      TMOD
      00000088H   SFRSYM    DATA     BYTE      TCON
      000000D8H.1 SFRSYM    DATA     BIT       P51
      000000C0H.2 SFRSYM    DATA     BIT       P42
      000000B0H.3 SFRSYM    DATA     BIT       P33
      000000A0H.4 SFRSYM    DATA     BIT       P24
      00000090H.5 SFRSYM    DATA     BIT       P15
      00000080H.6 SFRSYM    DATA     BIT       P06
      000000E8H.4 SFRSYM    DATA     BIT       INT6EN
      000000A3H   SFRSYM    DATA     BYTE      S2RELL
      000000D8H.2 SFRSYM    DATA     BIT       P52
      000000C0H.3 SFRSYM    DATA     BIT       P43
      000000B0H.4 SFRSYM    DATA     BIT       P34
      000000A0H.5 SFRSYM    DATA     BIT       P25
      00000090H.6 SFRSYM    DATA     BIT       P16
      00000080H.7 SFRSYM    DATA     BIT       P07
      000000E8H.5 SFRSYM    DATA     BIT       INT7EN
      000000C8H.2 SFRSYM    DATA     BIT       UCKS
LX51 LINKER/LOCATER V4.66.97.0                                                        04/10/2021  13:15:07  PAGE 83


      000000F8H   SFRSYM    DATA     BYTE      EXIP
      000000F3H   SFRSYM    DATA     BYTE      RTCM
      000000D8H.3 SFRSYM    DATA     BIT       P53
      000000C0H.4 SFRSYM    DATA     BIT       P44
      000000B0H.5 SFRSYM    DATA     BIT       P35
      000000A0H.6 SFRSYM    DATA     BIT       P26
      00000090H.7 SFRSYM    DATA     BIT       P17
      000000E8H.6 SFRSYM    DATA     BIT       INT8EN
      000000D8H.4 SFRSYM    DATA     BIT       P54
      000000C0H.5 SFRSYM    DATA     BIT       P45
      000000B0H.6 SFRSYM    DATA     BIT       P36
      000000A0H.7 SFRSYM    DATA     BIT       P27
      000000E8H.7 SFRSYM    DATA     BIT       INT9EN
      000000D8H.5 SFRSYM    DATA     BIT       P55
      000000C0H.6 SFRSYM    DATA     BIT       P46
      000000B0H.7 SFRSYM    DATA     BIT       P37
      000000D8H.6 SFRSYM    DATA     BIT       P56
      000000C0H.7 SFRSYM    DATA     BIT       P47
      000000EAH   SFRSYM    DATA     BYTE      RTAS
      000000AFH   SFRSYM    DATA     BYTE      HVTH
      00000095H   SFRSYM    DATA     BYTE      RCTAGH
      000000D8H.7 SFRSYM    DATA     BIT       P57
      000000F2H   SFRSYM    DATA     BYTE      RTCS
      00000088H.1 SFRSYM    DATA     BIT       IE0
      00000088H.3 SFRSYM    DATA     BIT       IE1
      00000094H   SFRSYM    DATA     BYTE      RCTAGL
      000000F0H   SFRSYM    DATA     BYTE      B
      000000E7H   SFRSYM    DATA     BYTE      MDUDAT
      000000C0H.0 SFRSYM    DATA     BIT       busy
      000000DEH   SFRSYM    DATA     BYTE      PWMCFG
      000000D4H   SFRSYM    DATA     BYTE      PWMAIF
      000000E0H   SFRSYM    DATA     BYTE      ACC
      000000D5H   SFRSYM    DATA     BYTE      PWMBIF
      0000009FH   SFRSYM    DATA     BYTE      RCMSHH
      000000A8H.4 SFRSYM    DATA     BIT       ES0
      000000EFH   SFRSYM    DATA     BYTE      LVDCON
      000000E6H   SFRSYM    DATA     BYTE      MDUCON
      000000D6H   SFRSYM    DATA     BYTE      PWMCIF
      000000A8H.1 SFRSYM    DATA     BIT       ET0
      000000A8H.6 SFRSYM    DATA     BIT       ES1
      000000D7H   SFRSYM    DATA     BYTE      PWMDIF
      000000A8H.3 SFRSYM    DATA     BIT       ET1
      00000088H.5 SFRSYM    DATA     BIT       TF0
      000000FDH   SFRSYM    DATA     BYTE      IDLSTH
      000000AEH   SFRSYM    DATA     BYTE      PLLCON
      000000A8H.5 SFRSYM    DATA     BIT       ET2
      00000098H.0 SFRSYM    DATA     BIT       RI0
      00000088H.7 SFRSYM    DATA     BIT       TF1
      0000009EH   SFRSYM    DATA     BYTE      RCMSHL
      00000097H   SFRSYM    DATA     BYTE      RCMSLH
      000000C8H.7 SFRSYM    DATA     BIT       TF2
      00000098H.2 SFRSYM    DATA     BIT       RB8
      0000008CH   SFRSYM    DATA     BYTE      TH0
      000000A8H.0 SFRSYM    DATA     BIT       EX0
      00000098H.1 SFRSYM    DATA     BIT       TI0
      00000088H.0 SFRSYM    DATA     BIT       IT0
      0000008DH   SFRSYM    DATA     BYTE      TH1
      000000A8H.2 SFRSYM    DATA     BIT       EX1
      00000098H.3 SFRSYM    DATA     BIT       TB8
      00000088H.2 SFRSYM    DATA     BIT       IT1
      000000FCH   SFRSYM    DATA     BYTE      IDLSTL
      000000CDH   SFRSYM    DATA     BYTE      TH2
      000000D0H.0 SFRSYM    DATA     BIT       P
      00000096H   SFRSYM    DATA     BYTE      RCMSLL
      00000098H.7 SFRSYM    DATA     BIT       SM0
LX51 LINKER/LOCATER V4.66.97.0                                                        04/10/2021  13:15:07  PAGE 84


      0000008AH   SFRSYM    DATA     BYTE      TL0
      00000098H.6 SFRSYM    DATA     BIT       SM1
      000000E5H   SFRSYM    DATA     BYTE      LXDIVH
      0000008BH   SFRSYM    DATA     BYTE      TL1
      000000D8H.4 SFRSYM    DATA     BIT       BL_CTL
      00000098H.5 SFRSYM    DATA     BIT       SM2
      000000CCH   SFRSYM    DATA     BYTE      TL2
      000000B8H.4 SFRSYM    DATA     BIT       PS0
      000000B8H.1 SFRSYM    DATA     BIT       PT0
      000000B8H.6 SFRSYM    DATA     BIT       PS1
      000000B8H.3 SFRSYM    DATA     BIT       PT1
      000000D0H.3 SFRSYM    DATA     BIT       RS0
      000000E4H   SFRSYM    DATA     BYTE      LXDIVL
      000000BDH   SFRSYM    DATA     BYTE      ADCDH
      000000B8H.5 SFRSYM    DATA     BIT       PT2
      00000088H.4 SFRSYM    DATA     BIT       TR0
      000000D0H.4 SFRSYM    DATA     BIT       RS1
      000000DDH   SFRSYM    DATA     BYTE      PWMCON
      00000088H.6 SFRSYM    DATA     BIT       TR1
      000000ADH   SFRSYM    DATA     BYTE      WDVTHH
      000000C8H.6 SFRSYM    DATA     BIT       TR2
      000000B8H.0 SFRSYM    DATA     BIT       PX0
      000000B8H.2 SFRSYM    DATA     BIT       PX1
      000000BCH   SFRSYM    DATA     BYTE      ADCDL
      000000ACH   SFRSYM    DATA     BYTE      WDVTHL
      000000DBH   SFRSYM    DATA     BYTE      PWMUPD
      000000C0H.5 SFRSYM    DATA     BIT       KEY_AD_GPIO
      00000099H   SFRSYM    DATA     BYTE      S0BUF
      0000009BH   SFRSYM    DATA     BYTE      S1BUF
      000000D8H.4 SFRSYM    DATA     BIT       BL_CTL_GPIO
      000000A2H   SFRSYM    DATA     BYTE      S2BUF
      00000098H   SFRSYM    DATA     BYTE      S0CON
      00000098H.4 SFRSYM    DATA     BIT       REN
      0000009AH   SFRSYM    DATA     BYTE      S1CON
      000000B9H   SFRSYM    DATA     BYTE      ADCON
      000000A1H   SFRSYM    DATA     BYTE      S2CON
      000000D0H.1 SFRSYM    DATA     BIT       DPS
      000000C9H   SFRSYM    DATA     BYTE      T2MOD
      000000C8H   SFRSYM    DATA     BYTE      T2CON
      000000FFH   SFRSYM    DATA     BYTE      STPSTH
      000000BFH   SFRSYM    DATA     BYTE      CKMIF
      000000FEH   SFRSYM    DATA     BYTE      STPSTL
      000000C2H   SFRSYM    DATA     BYTE      TKCFG
      00000093H   SFRSYM    DATA     BYTE      VCKDH
      000000B0H.3 SFRSYM    DATA     BIT       motor_a
      000000D0H.5 SFRSYM    DATA     BIT       F0
      000000E2H   SFRSYM    DATA     BYTE      LXCFG
      000000ABH   SFRSYM    DATA     BYTE      WDFLG
      00000092H   SFRSYM    DATA     BYTE      VCKDL
      000000B0H.7 SFRSYM    DATA     BIT       motor_b
      000000FBH   SFRSYM    DATA     BYTE      EPCON
      000000F6H   SFRSYM    DATA     BYTE      RTCDH
      000000C6H   SFRSYM    DATA     BYTE      ATKMH
      00000091H   SFRSYM    DATA     BYTE      RCCON
      000000F7H   SFRSYM    DATA     BYTE      INDEX
      000000EEH   SFRSYM    DATA     BYTE      RTCIF
      000000BEH   SFRSYM    DATA     BYTE      CKMON
      000000F5H   SFRSYM    DATA     BYTE      RTCDL
      000000D0H   SFRSYM    DATA     BYTE      PSW
      000000C5H   SFRSYM    DATA     BYTE      ATKML
      000000AAH   SFRSYM    DATA     BYTE      WDCON
      000000A6H   SFRSYM    DATA     BYTE      SPDAT

      01003B48H   BLOCK     CODE     ---       LVL=0
      01003B48H   LINE      CODE     ---       #38
LX51 LINKER/LOCATER V4.66.97.0                                                        04/10/2021  13:15:07  PAGE 85


      01003B48H   LINE      CODE     ---       #39
      01003B48H   LINE      CODE     ---       #40
      01003B50H   LINE      CODE     ---       #45
      01003B53H   LINE      CODE     ---       #46
      01003B56H   LINE      CODE     ---       #48
      01003B58H   LINE      CODE     ---       #49
      01003B5AH   LINE      CODE     ---       #51
      01003B5CH   LINE      CODE     ---       #52
      ---         BLOCKEND  ---      ---       LVL=0

      ---         MODULE    ---      ---       INTERRUPT
      01002FB4H   PUBLIC    CODE     ---       rtc_isr
      0100364FH   PUBLIC    CODE     ---       timer1_isr
      010014A4H   PUBLIC    CODE     ---       timer0_isr
      000000E3H   SFRSYM    DATA     BYTE      LXDAT
      000000C4H   SFRSYM    DATA     BYTE      TKCHS
      00000080H   SFRSYM    DATA     BYTE      P0
      000000C1H   SFRSYM    DATA     BYTE      TKCON
      00000090H   SFRSYM    DATA     BYTE      P1
      000000A0H   SFRSYM    DATA     BYTE      P2
      000000C0H.6 SFRSYM    DATA     BIT       MOTOR_SWITCH_ADC_GPIO
      000000C0H.0 SFRSYM    DATA     BIT       is_busy
      000000B0H   SFRSYM    DATA     BYTE      P3
      000000C0H.2 SFRSYM    DATA     BIT       DC_5V_GPIO
      000000D0H.6 SFRSYM    DATA     BIT       AC
      000000C0H   SFRSYM    DATA     BYTE      P4
      000000D8H   SFRSYM    DATA     BYTE      P5
      000000A5H   SFRSYM    DATA     BYTE      SPCON
      000000A8H.7 SFRSYM    DATA     BIT       EA
      000000E1H   SFRSYM    DATA     BYTE      LXCON
      000000A9H   SFRSYM    DATA     BYTE      P6
      000000C8H.0 SFRSYM    DATA     BIT       T2P0
      000000D9H   SFRSYM    DATA     BYTE      P7
      000000C8H.1 SFRSYM    DATA     BIT       T2P1
      000000F1H   SFRSYM    DATA     BYTE      RTCON
      000000C8H.4 SFRSYM    DATA     BIT       T2R0
      000000DAH   SFRSYM    DATA     BYTE      PWMEN
      000000CFH   SFRSYM    DATA     BYTE      TKMSH
      00000086H   SFRSYM    DATA     BYTE      PWCON
      000000C8H.5 SFRSYM    DATA     BIT       T2R1
      000000C0H.2 SFRSYM    DATA     BIT       dc_5v_in
      000000CEH   SFRSYM    DATA     BYTE      TKMSL
      000000A7H   SFRSYM    DATA     BYTE      SPSTA
      00000083H   SFRSYM    DATA     BYTE      DP0H
      000000A8H   SFRSYM    DATA     BYTE      IE
      00000085H   SFRSYM    DATA     BYTE      DP1H
      000000E9H   SFRSYM    DATA     BYTE      RTCSS
      00000082H   SFRSYM    DATA     BYTE      DP0L
      000000C0H.1 SFRSYM    DATA     BIT       BAT_ADC_GPIO
      000000CBH   SFRSYM    DATA     BYTE      T2CH
      000000B3H   SFRSYM    DATA     BYTE      I2CADM
      00000084H   SFRSYM    DATA     BYTE      DP1L
      000000C8H.3 SFRSYM    DATA     BIT       T2IE
      000000C3H   SFRSYM    DATA     BYTE      TKMTS
      000000C0H.7 SFRSYM    DATA     BIT       MODE_SWITCH_ADC_GPIO
      000000CAH   SFRSYM    DATA     BYTE      T2CL
      000000B2H   SFRSYM    DATA     BYTE      I2CADR
      000000B4H   SFRSYM    DATA     BYTE      I2CCCR
      000000B8H   SFRSYM    DATA     BYTE      IP
      000000B7H   SFRSYM    DATA     BYTE      I2CFLG
      000000B5H   SFRSYM    DATA     BYTE      I2CDAT
      000000EDH   SFRSYM    DATA     BYTE      RTMSS
      000000D0H.7 SFRSYM    DATA     BIT       CY
      000000BBH   SFRSYM    DATA     BYTE      ADCFGH
      000000DCH   SFRSYM    DATA     BYTE      PWMCMAX
LX51 LINKER/LOCATER V4.66.97.0                                                        04/10/2021  13:15:07  PAGE 86


      000000B1H   SFRSYM    DATA     BYTE      I2CCON
      000000D1H   SFRSYM    DATA     BYTE      PWMDIVH
      000000BAH   SFRSYM    DATA     BYTE      ADCFGL
      00000081H   SFRSYM    DATA     BYTE      SP
      000000F9H   SFRSYM    DATA     BYTE      EPIE
      000000D0H.2 SFRSYM    DATA     BIT       OV
      000000FAH   SFRSYM    DATA     BYTE      EPIF
      000000DFH   SFRSYM    DATA     BYTE      PWMDIVL
      000000B6H   SFRSYM    DATA     BYTE      I2CSTA
      000000E8H   SFRSYM    DATA     BYTE      EXIE
      000000D3H   SFRSYM    DATA     BYTE      PWMDUTH
      000000C7H   SFRSYM    DATA     BYTE      TKIF
      0000008FH   SFRSYM    DATA     BYTE      IT0CON
      00000080H.0 SFRSYM    DATA     BIT       P00
      000000ECH   SFRSYM    DATA     BYTE      RTAH
      000000D2H   SFRSYM    DATA     BYTE      PWMDUTL
      0000008EH   SFRSYM    DATA     BYTE      IT1CON
      00000090H.0 SFRSYM    DATA     BIT       P10
      00000080H.1 SFRSYM    DATA     BIT       P01
      0000009DH   SFRSYM    DATA     BYTE      S1RELH
      00000087H   SFRSYM    DATA     BYTE      PCON
      000000A0H.0 SFRSYM    DATA     BIT       P20
      00000090H.1 SFRSYM    DATA     BIT       P11
      00000080H.2 SFRSYM    DATA     BIT       P02
      000000E8H.0 SFRSYM    DATA     BIT       INT2EN
      000000F4H   SFRSYM    DATA     BYTE      RTCH
      000000A4H   SFRSYM    DATA     BYTE      S2RELH
      000000B0H.2 SFRSYM    DATA     BIT       LED_SW_MOD_GPIO
      000000B0H.0 SFRSYM    DATA     BIT       P30
      000000A0H.1 SFRSYM    DATA     BIT       P21
      00000090H.2 SFRSYM    DATA     BIT       P12
      00000080H.3 SFRSYM    DATA     BIT       P03
      000000E8H.1 SFRSYM    DATA     BIT       INT3EN
      000000C0H.0 SFRSYM    DATA     BIT       P40
      000000B0H.1 SFRSYM    DATA     BIT       P31
      000000A0H.2 SFRSYM    DATA     BIT       P22
      00000090H.3 SFRSYM    DATA     BIT       P13
      00000080H.4 SFRSYM    DATA     BIT       P04
      000000E8H.2 SFRSYM    DATA     BIT       INT4EN
      000000D8H.0 SFRSYM    DATA     BIT       P50
      000000C0H.1 SFRSYM    DATA     BIT       P41
      000000B0H.2 SFRSYM    DATA     BIT       P32
      000000A0H.3 SFRSYM    DATA     BIT       P23
      00000090H.4 SFRSYM    DATA     BIT       P14
      00000080H.5 SFRSYM    DATA     BIT       P05
      000000E8H.3 SFRSYM    DATA     BIT       INT5EN
      000000EBH   SFRSYM    DATA     BYTE      RTAM
      0000009CH   SFRSYM    DATA     BYTE      S1RELL
      00000089H   SFRSYM    DATA     BYTE      TMOD
      00000088H   SFRSYM    DATA     BYTE      TCON
      000000D8H.1 SFRSYM    DATA     BIT       P51
      000000C0H.2 SFRSYM    DATA     BIT       P42
      000000B0H.3 SFRSYM    DATA     BIT       P33
      000000A0H.4 SFRSYM    DATA     BIT       P24
      00000090H.5 SFRSYM    DATA     BIT       P15
      00000080H.6 SFRSYM    DATA     BIT       P06
      000000E8H.4 SFRSYM    DATA     BIT       INT6EN
      000000A3H   SFRSYM    DATA     BYTE      S2RELL
      000000D8H.2 SFRSYM    DATA     BIT       P52
      000000C0H.3 SFRSYM    DATA     BIT       P43
      000000B0H.4 SFRSYM    DATA     BIT       P34
      000000A0H.5 SFRSYM    DATA     BIT       P25
      00000090H.6 SFRSYM    DATA     BIT       P16
      00000080H.7 SFRSYM    DATA     BIT       P07
      000000E8H.5 SFRSYM    DATA     BIT       INT7EN
LX51 LINKER/LOCATER V4.66.97.0                                                        04/10/2021  13:15:07  PAGE 87


      000000C8H.2 SFRSYM    DATA     BIT       UCKS
      000000F8H   SFRSYM    DATA     BYTE      EXIP
      000000F3H   SFRSYM    DATA     BYTE      RTCM
      000000D8H.3 SFRSYM    DATA     BIT       P53
      000000C0H.4 SFRSYM    DATA     BIT       P44
      000000B0H.5 SFRSYM    DATA     BIT       P35
      000000A0H.6 SFRSYM    DATA     BIT       P26
      00000090H.7 SFRSYM    DATA     BIT       P17
      000000E8H.6 SFRSYM    DATA     BIT       INT8EN
      000000D8H.4 SFRSYM    DATA     BIT       P54
      000000C0H.5 SFRSYM    DATA     BIT       P45
      000000B0H.6 SFRSYM    DATA     BIT       P36
      000000A0H.7 SFRSYM    DATA     BIT       P27
      000000E8H.7 SFRSYM    DATA     BIT       INT9EN
      000000D8H.5 SFRSYM    DATA     BIT       P55
      000000C0H.6 SFRSYM    DATA     BIT       P46
      000000B0H.7 SFRSYM    DATA     BIT       P37
      000000D8H.6 SFRSYM    DATA     BIT       P56
      000000C0H.7 SFRSYM    DATA     BIT       P47
      000000EAH   SFRSYM    DATA     BYTE      RTAS
      000000AFH   SFRSYM    DATA     BYTE      HVTH
      00000095H   SFRSYM    DATA     BYTE      RCTAGH
      000000D8H.7 SFRSYM    DATA     BIT       P57
      000000F2H   SFRSYM    DATA     BYTE      RTCS
      00000088H.1 SFRSYM    DATA     BIT       IE0
      00000088H.3 SFRSYM    DATA     BIT       IE1
      00000094H   SFRSYM    DATA     BYTE      RCTAGL
      000000F0H   SFRSYM    DATA     BYTE      B
      000000E7H   SFRSYM    DATA     BYTE      MDUDAT
      000000C0H.0 SFRSYM    DATA     BIT       busy
      000000DEH   SFRSYM    DATA     BYTE      PWMCFG
      000000D4H   SFRSYM    DATA     BYTE      PWMAIF
      000000E0H   SFRSYM    DATA     BYTE      ACC
      000000D5H   SFRSYM    DATA     BYTE      PWMBIF
      0000009FH   SFRSYM    DATA     BYTE      RCMSHH
      000000A8H.4 SFRSYM    DATA     BIT       ES0
      000000EFH   SFRSYM    DATA     BYTE      LVDCON
      000000E6H   SFRSYM    DATA     BYTE      MDUCON
      000000D6H   SFRSYM    DATA     BYTE      PWMCIF
      000000A8H.1 SFRSYM    DATA     BIT       ET0
      000000A8H.6 SFRSYM    DATA     BIT       ES1
      000000D7H   SFRSYM    DATA     BYTE      PWMDIF
      000000A8H.3 SFRSYM    DATA     BIT       ET1
      00000088H.5 SFRSYM    DATA     BIT       TF0
      000000FDH   SFRSYM    DATA     BYTE      IDLSTH
      000000AEH   SFRSYM    DATA     BYTE      PLLCON
      000000A8H.5 SFRSYM    DATA     BIT       ET2
      00000098H.0 SFRSYM    DATA     BIT       RI0
      00000088H.7 SFRSYM    DATA     BIT       TF1
      0000009EH   SFRSYM    DATA     BYTE      RCMSHL
      00000097H   SFRSYM    DATA     BYTE      RCMSLH
      000000C8H.7 SFRSYM    DATA     BIT       TF2
      00000098H.2 SFRSYM    DATA     BIT       RB8
      0000008CH   SFRSYM    DATA     BYTE      TH0
      000000A8H.0 SFRSYM    DATA     BIT       EX0
      00000098H.1 SFRSYM    DATA     BIT       TI0
      00000088H.0 SFRSYM    DATA     BIT       IT0
      0000008DH   SFRSYM    DATA     BYTE      TH1
      000000A8H.2 SFRSYM    DATA     BIT       EX1
      00000098H.3 SFRSYM    DATA     BIT       TB8
      00000088H.2 SFRSYM    DATA     BIT       IT1
      000000FCH   SFRSYM    DATA     BYTE      IDLSTL
      000000CDH   SFRSYM    DATA     BYTE      TH2
      000000D0H.0 SFRSYM    DATA     BIT       P
      00000096H   SFRSYM    DATA     BYTE      RCMSLL
LX51 LINKER/LOCATER V4.66.97.0                                                        04/10/2021  13:15:07  PAGE 88


      00000098H.7 SFRSYM    DATA     BIT       SM0
      0000008AH   SFRSYM    DATA     BYTE      TL0
      00000098H.6 SFRSYM    DATA     BIT       SM1
      000000E5H   SFRSYM    DATA     BYTE      LXDIVH
      0000008BH   SFRSYM    DATA     BYTE      TL1
      000000D8H.4 SFRSYM    DATA     BIT       BL_CTL
      00000098H.5 SFRSYM    DATA     BIT       SM2
      000000CCH   SFRSYM    DATA     BYTE      TL2
      000000B8H.4 SFRSYM    DATA     BIT       PS0
      000000B8H.1 SFRSYM    DATA     BIT       PT0
      000000B8H.6 SFRSYM    DATA     BIT       PS1
      000000B8H.3 SFRSYM    DATA     BIT       PT1
      000000D0H.3 SFRSYM    DATA     BIT       RS0
      000000E4H   SFRSYM    DATA     BYTE      LXDIVL
      000000BDH   SFRSYM    DATA     BYTE      ADCDH
      000000B8H.5 SFRSYM    DATA     BIT       PT2
      00000088H.4 SFRSYM    DATA     BIT       TR0
      000000D0H.4 SFRSYM    DATA     BIT       RS1
      000000DDH   SFRSYM    DATA     BYTE      PWMCON
      00000088H.6 SFRSYM    DATA     BIT       TR1
      000000ADH   SFRSYM    DATA     BYTE      WDVTHH
      000000C8H.6 SFRSYM    DATA     BIT       TR2
      000000B8H.0 SFRSYM    DATA     BIT       PX0
      000000B8H.2 SFRSYM    DATA     BIT       PX1
      000000BCH   SFRSYM    DATA     BYTE      ADCDL
      000000ACH   SFRSYM    DATA     BYTE      WDVTHL
      000000DBH   SFRSYM    DATA     BYTE      PWMUPD
      000000C0H.5 SFRSYM    DATA     BIT       KEY_AD_GPIO
      00000099H   SFRSYM    DATA     BYTE      S0BUF
      0000009BH   SFRSYM    DATA     BYTE      S1BUF
      000000D8H.4 SFRSYM    DATA     BIT       BL_CTL_GPIO
      000000A2H   SFRSYM    DATA     BYTE      S2BUF
      00000098H   SFRSYM    DATA     BYTE      S0CON
      00000098H.4 SFRSYM    DATA     BIT       REN
      0000009AH   SFRSYM    DATA     BYTE      S1CON
      000000B9H   SFRSYM    DATA     BYTE      ADCON
      000000A1H   SFRSYM    DATA     BYTE      S2CON
      000000D0H.1 SFRSYM    DATA     BIT       DPS
      000000C9H   SFRSYM    DATA     BYTE      T2MOD
      000000C8H   SFRSYM    DATA     BYTE      T2CON
      000000FFH   SFRSYM    DATA     BYTE      STPSTH
      000000BFH   SFRSYM    DATA     BYTE      CKMIF
      000000FEH   SFRSYM    DATA     BYTE      STPSTL
      000000C2H   SFRSYM    DATA     BYTE      TKCFG
      00000093H   SFRSYM    DATA     BYTE      VCKDH
      000000B0H.3 SFRSYM    DATA     BIT       motor_a
      000000D0H.5 SFRSYM    DATA     BIT       F0
      000000E2H   SFRSYM    DATA     BYTE      LXCFG
      000000ABH   SFRSYM    DATA     BYTE      WDFLG
      00000092H   SFRSYM    DATA     BYTE      VCKDL
      000000B0H.7 SFRSYM    DATA     BIT       motor_b
      000000FBH   SFRSYM    DATA     BYTE      EPCON
      000000F6H   SFRSYM    DATA     BYTE      RTCDH
      000000C6H   SFRSYM    DATA     BYTE      ATKMH
      00000091H   SFRSYM    DATA     BYTE      RCCON
      000000F7H   SFRSYM    DATA     BYTE      INDEX
      000000EEH   SFRSYM    DATA     BYTE      RTCIF
      000000BEH   SFRSYM    DATA     BYTE      CKMON
      000000F5H   SFRSYM    DATA     BYTE      RTCDL
      000000D0H   SFRSYM    DATA     BYTE      PSW
      000000C5H   SFRSYM    DATA     BYTE      ATKML
      000000AAH   SFRSYM    DATA     BYTE      WDCON
      000000A6H   SFRSYM    DATA     BYTE      SPDAT

      010014A4H   BLOCK     CODE     ---       LVL=0
LX51 LINKER/LOCATER V4.66.97.0                                                        04/10/2021  13:15:07  PAGE 89


      010014ACH   BLOCK     CODE     NEAR LAB  LVL=1
      0200030FH   SYMBOL    XDATA    BYTE      cnt_10ms
      02000310H   SYMBOL    XDATA    BYTE      cnt_1ms
      02000311H   SYMBOL    XDATA    BYTE      cnt_20ms
      02000312H   SYMBOL    XDATA    BYTE      cnt_200ms
      02000313H   SYMBOL    XDATA    BYTE      cnt_2s
      ---         BLOCKEND  ---      ---       LVL=1
      010014A4H   LINE      CODE     ---       #25
      010014ACH   LINE      CODE     ---       #33
      010014B5H   LINE      CODE     ---       #34
      010014B5H   LINE      CODE     ---       #39
      010014B8H   LINE      CODE     ---       #40
      010014BBH   LINE      CODE     ---       #43
      010014C5H   LINE      CODE     ---       #44
      010014C5H   LINE      CODE     ---       #45
      010014D3H   LINE      CODE     ---       #46
      010014D3H   LINE      CODE     ---       #48
      010014DDH   LINE      CODE     ---       #49
      010014DDH   LINE      CODE     ---       #50
      010014EBH   LINE      CODE     ---       #51
      010014EBH   LINE      CODE     ---       #53
      010014FDH   LINE      CODE     ---       #54
      010014FDH   LINE      CODE     ---       #55
      010014FFH   LINE      CODE     ---       #57
      01001503H   LINE      CODE     ---       #59
      0100150DH   LINE      CODE     ---       #60
      0100150DH   LINE      CODE     ---       #61
      0100150FH   LINE      CODE     ---       #62
      01001514H   LINE      CODE     ---       #63
      01001514H   LINE      CODE     ---       #64
      0100151AH   LINE      CODE     ---       #65
      01001527H   LINE      CODE     ---       #66
      01001527H   LINE      CODE     ---       #67
      0100152CH   LINE      CODE     ---       #68
      01001531H   LINE      CODE     ---       #69
      01001531H   LINE      CODE     ---       #72
      01001540H   LINE      CODE     ---       #73
      01001540H   LINE      CODE     ---       #74
      01001542H   LINE      CODE     ---       #75
      01001547H   LINE      CODE     ---       #78
      0100154FH   LINE      CODE     ---       #79
      0100154FH   LINE      CODE     ---       #81
      0100155EH   LINE      CODE     ---       #82
      0100155EH   LINE      CODE     ---       #83
      01001560H   LINE      CODE     ---       #84
      01001565H   LINE      CODE     ---       #85
      01001565H   LINE      CODE     ---       #88
      01001574H   LINE      CODE     ---       #89
      01001574H   LINE      CODE     ---       #90
      01001576H   LINE      CODE     ---       #91
      0100157BH   LINE      CODE     ---       #92
      0100157BH   LINE      CODE     ---       #94
      01001585H   LINE      CODE     ---       #95
      01001585H   LINE      CODE     ---       #96
      01001593H   LINE      CODE     ---       #97
      01001593H   LINE      CODE     ---       #99
      01001599H   LINE      CODE     ---       #100
      01001599H   LINE      CODE     ---       #101
      0100159BH   LINE      CODE     ---       #102
      0100159BH   LINE      CODE     ---       #104
      0100159BH   LINE      CODE     ---       #129
      0100159DH   LINE      CODE     ---       #132
      0100159DH   LINE      CODE     ---       #133
      010015A0H   LINE      CODE     ---       #134
      010015A3H   LINE      CODE     ---       #136
LX51 LINKER/LOCATER V4.66.97.0                                                        04/10/2021  13:15:07  PAGE 90


      010015ADH   LINE      CODE     ---       #137
      010015ADH   LINE      CODE     ---       #138
      010015BBH   LINE      CODE     ---       #139
      010015BBH   LINE      CODE     ---       #140
      010015BBH   LINE      CODE     ---       #141
      ---         BLOCKEND  ---      ---       LVL=0

      0100364FH   BLOCK     CODE     ---       LVL=0
      0100364FH   LINE      CODE     ---       #156
      0100366CH   LINE      CODE     ---       #160
      0100366FH   LINE      CODE     ---       #165
      ---         BLOCKEND  ---      ---       LVL=0

      01002FB4H   BLOCK     CODE     ---       LVL=0
      01002FC1H   BLOCK     CODE     NEAR LAB  LVL=1
      02000314H   SYMBOL    XDATA    BYTE      test_flag
      ---         BLOCKEND  ---      ---       LVL=1
      01002FB4H   LINE      CODE     ---       #183
      01002FC1H   LINE      CODE     ---       #187
      01002FC6H   LINE      CODE     ---       #188
      01002FC6H   LINE      CODE     ---       #189
      01002FC9H   LINE      CODE     ---       #192
      01002FD8H   LINE      CODE     ---       #195
      01002FDAH   LINE      CODE     ---       #196
      01002FDAH   LINE      CODE     ---       #197
      01002FE0H   LINE      CODE     ---       #199
      01002FE8H   LINE      CODE     ---       #200
      01002FE8H   LINE      CODE     ---       #201
      01002FEDH   LINE      CODE     ---       #202
      01002FEDH   LINE      CODE     ---       #203
      01002FFCH   LINE      CODE     ---       #205
      01002FFEH   LINE      CODE     ---       #206
      01002FFEH   LINE      CODE     ---       #207
      01003004H   LINE      CODE     ---       #208
      01003004H   LINE      CODE     ---       #209
      01003004H   LINE      CODE     ---       #210
      01003004H   LINE      CODE     ---       #211
      ---         BLOCKEND  ---      ---       LVL=0

      ---         MODULE    ---      ---       RTC
      020002A2H   PUBLIC    XDATA    BYTE      flag_second
      020002A1H   PUBLIC    XDATA    BYTE      flag_alarm_timeout
      020002A0H   PUBLIC    XDATA    BYTE      flag_alarm2_en
      0200029FH   PUBLIC    XDATA    BYTE      flag_alarm1_en
      0200029DH   PUBLIC    XDATA    WORD      alarmed_time
      0200029CH   PUBLIC    XDATA    BYTE      flag_current_seting_alarm
      0200029BH   PUBLIC    XDATA    BYTE      flag_24hours_en
      0200029AH   PUBLIC    XDATA    BYTE      alarm_ring_step
      02000299H   PUBLIC    XDATA    BYTE      flag_current_alarmed
      02000291H   PUBLIC    XDATA    ---       calendar
      02000281H   PUBLIC    XDATA    ---       rtc_alarm
      02000280H   PUBLIC    XDATA    BYTE      flag_alarm_style_ring
      0200027FH   PUBLIC    XDATA    BYTE      snooze_time
      0200027DH   PUBLIC    XDATA    WORD      flag_enter_snooze
      0200027CH   PUBLIC    XDATA    BYTE      alarm_shake_step
      0200027BH   PUBLIC    XDATA    BYTE      flag_minute
      0200027AH   PUBLIC    XDATA    BYTE      flag_alarm_style_shake
      02000279H   PUBLIC    XDATA    BYTE      flag_current_snooze
      01003C8AH   PUBLIC    CONST    ---       table_week
      01003C7EH   PUBLIC    CONST    ---       day_of_month
      010033CEH   PUBLIC    CODE     ---       rtc_alarm_opera
      010035D7H   PUBLIC    CODE     ---       alarmed_time_test
      010018EDH   PUBLIC    CODE     ---       alarm_test
      01003901H   PUBLIC    CODE     ---       snooze_alarm_test
      01003343H   PUBLIC    CODE     ---       enter_snooze
LX51 LINKER/LOCATER V4.66.97.0                                                        04/10/2021  13:15:07  PAGE 91


      02000000H   PUBLIC    XDATA    BYTE      ?_set_rtc?BYTE
      010017E9H   PUBLIC    CODE     ---       _set_rtc
      010015C4H   PUBLIC    CODE     ---       get_calendar
      010036F9H   PUBLIC    CODE     ---       _set_max_days_of_month
      01002EF9H   PUBLIC    CODE     ---       _is_over_max_days
      0100379AH   PUBLIC    CODE     ---       _is_leap_year
      01003BA5H   PUBLIC    CODE     ---       rtc_init
      010038AEH   PUBLIC    CODE     ---       updata_calendar
      000000E3H   SFRSYM    DATA     BYTE      LXDAT
      000000C4H   SFRSYM    DATA     BYTE      TKCHS
      00000080H   SFRSYM    DATA     BYTE      P0
      000000C1H   SFRSYM    DATA     BYTE      TKCON
      00000090H   SFRSYM    DATA     BYTE      P1
      000000A0H   SFRSYM    DATA     BYTE      P2
      000000C0H.6 SFRSYM    DATA     BIT       MOTOR_SWITCH_ADC_GPIO
      000000C0H.0 SFRSYM    DATA     BIT       is_busy
      000000B0H   SFRSYM    DATA     BYTE      P3
      000000C0H.2 SFRSYM    DATA     BIT       DC_5V_GPIO
      000000D0H.6 SFRSYM    DATA     BIT       AC
      000000C0H   SFRSYM    DATA     BYTE      P4
      000000D8H   SFRSYM    DATA     BYTE      P5
      000000A5H   SFRSYM    DATA     BYTE      SPCON
      000000A8H.7 SFRSYM    DATA     BIT       EA
      000000E1H   SFRSYM    DATA     BYTE      LXCON
      000000A9H   SFRSYM    DATA     BYTE      P6
      000000C8H.0 SFRSYM    DATA     BIT       T2P0
      000000D9H   SFRSYM    DATA     BYTE      P7
      000000C8H.1 SFRSYM    DATA     BIT       T2P1
      000000F1H   SFRSYM    DATA     BYTE      RTCON
      000000C8H.4 SFRSYM    DATA     BIT       T2R0
      000000DAH   SFRSYM    DATA     BYTE      PWMEN
      000000CFH   SFRSYM    DATA     BYTE      TKMSH
      00000086H   SFRSYM    DATA     BYTE      PWCON
      000000C8H.5 SFRSYM    DATA     BIT       T2R1
      000000C0H.2 SFRSYM    DATA     BIT       dc_5v_in
      000000CEH   SFRSYM    DATA     BYTE      TKMSL
      000000A7H   SFRSYM    DATA     BYTE      SPSTA
      00000083H   SFRSYM    DATA     BYTE      DP0H
      000000A8H   SFRSYM    DATA     BYTE      IE
      00000085H   SFRSYM    DATA     BYTE      DP1H
      000000E9H   SFRSYM    DATA     BYTE      RTCSS
      00000082H   SFRSYM    DATA     BYTE      DP0L
      000000C0H.1 SFRSYM    DATA     BIT       BAT_ADC_GPIO
      000000CBH   SFRSYM    DATA     BYTE      T2CH
      000000B3H   SFRSYM    DATA     BYTE      I2CADM
      00000084H   SFRSYM    DATA     BYTE      DP1L
      000000C8H.3 SFRSYM    DATA     BIT       T2IE
      000000C3H   SFRSYM    DATA     BYTE      TKMTS
      000000C0H.7 SFRSYM    DATA     BIT       MODE_SWITCH_ADC_GPIO
      000000CAH   SFRSYM    DATA     BYTE      T2CL
      000000B2H   SFRSYM    DATA     BYTE      I2CADR
      000000B4H   SFRSYM    DATA     BYTE      I2CCCR
      000000B8H   SFRSYM    DATA     BYTE      IP
      000000B7H   SFRSYM    DATA     BYTE      I2CFLG
      000000B5H   SFRSYM    DATA     BYTE      I2CDAT
      000000EDH   SFRSYM    DATA     BYTE      RTMSS
      000000D0H.7 SFRSYM    DATA     BIT       CY
      000000BBH   SFRSYM    DATA     BYTE      ADCFGH
      000000DCH   SFRSYM    DATA     BYTE      PWMCMAX
      000000B1H   SFRSYM    DATA     BYTE      I2CCON
      000000D1H   SFRSYM    DATA     BYTE      PWMDIVH
      000000BAH   SFRSYM    DATA     BYTE      ADCFGL
      00000081H   SFRSYM    DATA     BYTE      SP
      000000F9H   SFRSYM    DATA     BYTE      EPIE
      000000D0H.2 SFRSYM    DATA     BIT       OV
LX51 LINKER/LOCATER V4.66.97.0                                                        04/10/2021  13:15:07  PAGE 92


      000000FAH   SFRSYM    DATA     BYTE      EPIF
      000000DFH   SFRSYM    DATA     BYTE      PWMDIVL
      000000B6H   SFRSYM    DATA     BYTE      I2CSTA
      000000E8H   SFRSYM    DATA     BYTE      EXIE
      000000D3H   SFRSYM    DATA     BYTE      PWMDUTH
      000000C7H   SFRSYM    DATA     BYTE      TKIF
      0000008FH   SFRSYM    DATA     BYTE      IT0CON
      00000080H.0 SFRSYM    DATA     BIT       P00
      000000ECH   SFRSYM    DATA     BYTE      RTAH
      000000D2H   SFRSYM    DATA     BYTE      PWMDUTL
      0000008EH   SFRSYM    DATA     BYTE      IT1CON
      00000090H.0 SFRSYM    DATA     BIT       P10
      00000080H.1 SFRSYM    DATA     BIT       P01
      0000009DH   SFRSYM    DATA     BYTE      S1RELH
      00000087H   SFRSYM    DATA     BYTE      PCON
      000000A0H.0 SFRSYM    DATA     BIT       P20
      00000090H.1 SFRSYM    DATA     BIT       P11
      00000080H.2 SFRSYM    DATA     BIT       P02
      000000E8H.0 SFRSYM    DATA     BIT       INT2EN
      000000F4H   SFRSYM    DATA     BYTE      RTCH
      000000A4H   SFRSYM    DATA     BYTE      S2RELH
      000000B0H.2 SFRSYM    DATA     BIT       LED_SW_MOD_GPIO
      000000B0H.0 SFRSYM    DATA     BIT       P30
      000000A0H.1 SFRSYM    DATA     BIT       P21
      00000090H.2 SFRSYM    DATA     BIT       P12
      00000080H.3 SFRSYM    DATA     BIT       P03
      000000E8H.1 SFRSYM    DATA     BIT       INT3EN
      000000C0H.0 SFRSYM    DATA     BIT       P40
      000000B0H.1 SFRSYM    DATA     BIT       P31
      000000A0H.2 SFRSYM    DATA     BIT       P22
      00000090H.3 SFRSYM    DATA     BIT       P13
      00000080H.4 SFRSYM    DATA     BIT       P04
      000000E8H.2 SFRSYM    DATA     BIT       INT4EN
      000000D8H.0 SFRSYM    DATA     BIT       P50
      000000C0H.1 SFRSYM    DATA     BIT       P41
      000000B0H.2 SFRSYM    DATA     BIT       P32
      000000A0H.3 SFRSYM    DATA     BIT       P23
      00000090H.4 SFRSYM    DATA     BIT       P14
      00000080H.5 SFRSYM    DATA     BIT       P05
      000000E8H.3 SFRSYM    DATA     BIT       INT5EN
      000000EBH   SFRSYM    DATA     BYTE      RTAM
      0000009CH   SFRSYM    DATA     BYTE      S1RELL
      00000089H   SFRSYM    DATA     BYTE      TMOD
      00000088H   SFRSYM    DATA     BYTE      TCON
      000000D8H.1 SFRSYM    DATA     BIT       P51
      000000C0H.2 SFRSYM    DATA     BIT       P42
      000000B0H.3 SFRSYM    DATA     BIT       P33
      000000A0H.4 SFRSYM    DATA     BIT       P24
      00000090H.5 SFRSYM    DATA     BIT       P15
      00000080H.6 SFRSYM    DATA     BIT       P06
      000000E8H.4 SFRSYM    DATA     BIT       INT6EN
      000000A3H   SFRSYM    DATA     BYTE      S2RELL
      000000D8H.2 SFRSYM    DATA     BIT       P52
      000000C0H.3 SFRSYM    DATA     BIT       P43
      000000B0H.4 SFRSYM    DATA     BIT       P34
      000000A0H.5 SFRSYM    DATA     BIT       P25
      00000090H.6 SFRSYM    DATA     BIT       P16
      00000080H.7 SFRSYM    DATA     BIT       P07
      000000E8H.5 SFRSYM    DATA     BIT       INT7EN
      000000C8H.2 SFRSYM    DATA     BIT       UCKS
      000000F8H   SFRSYM    DATA     BYTE      EXIP
      000000F3H   SFRSYM    DATA     BYTE      RTCM
      000000D8H.3 SFRSYM    DATA     BIT       P53
      000000C0H.4 SFRSYM    DATA     BIT       P44
      000000B0H.5 SFRSYM    DATA     BIT       P35
LX51 LINKER/LOCATER V4.66.97.0                                                        04/10/2021  13:15:07  PAGE 93


      000000A0H.6 SFRSYM    DATA     BIT       P26
      00000090H.7 SFRSYM    DATA     BIT       P17
      000000E8H.6 SFRSYM    DATA     BIT       INT8EN
      000000D8H.4 SFRSYM    DATA     BIT       P54
      000000C0H.5 SFRSYM    DATA     BIT       P45
      000000B0H.6 SFRSYM    DATA     BIT       P36
      000000A0H.7 SFRSYM    DATA     BIT       P27
      000000E8H.7 SFRSYM    DATA     BIT       INT9EN
      000000D8H.5 SFRSYM    DATA     BIT       P55
      000000C0H.6 SFRSYM    DATA     BIT       P46
      000000B0H.7 SFRSYM    DATA     BIT       P37
      000000D8H.6 SFRSYM    DATA     BIT       P56
      000000C0H.7 SFRSYM    DATA     BIT       P47
      000000EAH   SFRSYM    DATA     BYTE      RTAS
      000000AFH   SFRSYM    DATA     BYTE      HVTH
      00000095H   SFRSYM    DATA     BYTE      RCTAGH
      000000D8H.7 SFRSYM    DATA     BIT       P57
      000000F2H   SFRSYM    DATA     BYTE      RTCS
      00000088H.1 SFRSYM    DATA     BIT       IE0
      00000088H.3 SFRSYM    DATA     BIT       IE1
      00000094H   SFRSYM    DATA     BYTE      RCTAGL
      000000F0H   SFRSYM    DATA     BYTE      B
      000000E7H   SFRSYM    DATA     BYTE      MDUDAT
      000000C0H.0 SFRSYM    DATA     BIT       busy
      000000DEH   SFRSYM    DATA     BYTE      PWMCFG
      000000D4H   SFRSYM    DATA     BYTE      PWMAIF
      000000E0H   SFRSYM    DATA     BYTE      ACC
      000000D5H   SFRSYM    DATA     BYTE      PWMBIF
      0000009FH   SFRSYM    DATA     BYTE      RCMSHH
      000000A8H.4 SFRSYM    DATA     BIT       ES0
      000000EFH   SFRSYM    DATA     BYTE      LVDCON
      000000E6H   SFRSYM    DATA     BYTE      MDUCON
      000000D6H   SFRSYM    DATA     BYTE      PWMCIF
      000000A8H.1 SFRSYM    DATA     BIT       ET0
      000000A8H.6 SFRSYM    DATA     BIT       ES1
      000000D7H   SFRSYM    DATA     BYTE      PWMDIF
      000000A8H.3 SFRSYM    DATA     BIT       ET1
      00000088H.5 SFRSYM    DATA     BIT       TF0
      000000FDH   SFRSYM    DATA     BYTE      IDLSTH
      000000AEH   SFRSYM    DATA     BYTE      PLLCON
      000000A8H.5 SFRSYM    DATA     BIT       ET2
      00000098H.0 SFRSYM    DATA     BIT       RI0
      00000088H.7 SFRSYM    DATA     BIT       TF1
      0000009EH   SFRSYM    DATA     BYTE      RCMSHL
      00000097H   SFRSYM    DATA     BYTE      RCMSLH
      000000C8H.7 SFRSYM    DATA     BIT       TF2
      00000098H.2 SFRSYM    DATA     BIT       RB8
      0000008CH   SFRSYM    DATA     BYTE      TH0
      000000A8H.0 SFRSYM    DATA     BIT       EX0
      00000098H.1 SFRSYM    DATA     BIT       TI0
      00000088H.0 SFRSYM    DATA     BIT       IT0
      0000008DH   SFRSYM    DATA     BYTE      TH1
      000000A8H.2 SFRSYM    DATA     BIT       EX1
      00000098H.3 SFRSYM    DATA     BIT       TB8
      00000088H.2 SFRSYM    DATA     BIT       IT1
      000000FCH   SFRSYM    DATA     BYTE      IDLSTL
      000000CDH   SFRSYM    DATA     BYTE      TH2
      000000D0H.0 SFRSYM    DATA     BIT       P
      00000096H   SFRSYM    DATA     BYTE      RCMSLL
      00000098H.7 SFRSYM    DATA     BIT       SM0
      0000008AH   SFRSYM    DATA     BYTE      TL0
      00000098H.6 SFRSYM    DATA     BIT       SM1
      000000E5H   SFRSYM    DATA     BYTE      LXDIVH
      0000008BH   SFRSYM    DATA     BYTE      TL1
      000000D8H.4 SFRSYM    DATA     BIT       BL_CTL
LX51 LINKER/LOCATER V4.66.97.0                                                        04/10/2021  13:15:07  PAGE 94


      00000098H.5 SFRSYM    DATA     BIT       SM2
      000000CCH   SFRSYM    DATA     BYTE      TL2
      000000B8H.4 SFRSYM    DATA     BIT       PS0
      000000B8H.1 SFRSYM    DATA     BIT       PT0
      000000B8H.6 SFRSYM    DATA     BIT       PS1
      000000B8H.3 SFRSYM    DATA     BIT       PT1
      000000D0H.3 SFRSYM    DATA     BIT       RS0
      000000E4H   SFRSYM    DATA     BYTE      LXDIVL
      000000BDH   SFRSYM    DATA     BYTE      ADCDH
      000000B8H.5 SFRSYM    DATA     BIT       PT2
      00000088H.4 SFRSYM    DATA     BIT       TR0
      000000D0H.4 SFRSYM    DATA     BIT       RS1
      000000DDH   SFRSYM    DATA     BYTE      PWMCON
      00000088H.6 SFRSYM    DATA     BIT       TR1
      000000ADH   SFRSYM    DATA     BYTE      WDVTHH
      000000C8H.6 SFRSYM    DATA     BIT       TR2
      000000B8H.0 SFRSYM    DATA     BIT       PX0
      000000B8H.2 SFRSYM    DATA     BIT       PX1
      000000BCH   SFRSYM    DATA     BYTE      ADCDL
      000000ACH   SFRSYM    DATA     BYTE      WDVTHL
      000000DBH   SFRSYM    DATA     BYTE      PWMUPD
      000000C0H.5 SFRSYM    DATA     BIT       KEY_AD_GPIO
      00000099H   SFRSYM    DATA     BYTE      S0BUF
      0000009BH   SFRSYM    DATA     BYTE      S1BUF
      000000D8H.4 SFRSYM    DATA     BIT       BL_CTL_GPIO
      000000A2H   SFRSYM    DATA     BYTE      S2BUF
      00000098H   SFRSYM    DATA     BYTE      S0CON
      00000098H.4 SFRSYM    DATA     BIT       REN
      0000009AH   SFRSYM    DATA     BYTE      S1CON
      000000B9H   SFRSYM    DATA     BYTE      ADCON
      000000A1H   SFRSYM    DATA     BYTE      S2CON
      000000D0H.1 SFRSYM    DATA     BIT       DPS
      000000C9H   SFRSYM    DATA     BYTE      T2MOD
      000000C8H   SFRSYM    DATA     BYTE      T2CON
      000000FFH   SFRSYM    DATA     BYTE      STPSTH
      000000BFH   SFRSYM    DATA     BYTE      CKMIF
      000000FEH   SFRSYM    DATA     BYTE      STPSTL
      000000C2H   SFRSYM    DATA     BYTE      TKCFG
      00000093H   SFRSYM    DATA     BYTE      VCKDH
      000000B0H.3 SFRSYM    DATA     BIT       motor_a
      000000D0H.5 SFRSYM    DATA     BIT       F0
      000000E2H   SFRSYM    DATA     BYTE      LXCFG
      000000ABH   SFRSYM    DATA     BYTE      WDFLG
      00000092H   SFRSYM    DATA     BYTE      VCKDL
      000000B0H.7 SFRSYM    DATA     BIT       motor_b
      000000FBH   SFRSYM    DATA     BYTE      EPCON
      000000F6H   SFRSYM    DATA     BYTE      RTCDH
      000000C6H   SFRSYM    DATA     BYTE      ATKMH
      00000091H   SFRSYM    DATA     BYTE      RCCON
      000000F7H   SFRSYM    DATA     BYTE      INDEX
      000000EEH   SFRSYM    DATA     BYTE      RTCIF
      000000BEH   SFRSYM    DATA     BYTE      CKMON
      000000F5H   SFRSYM    DATA     BYTE      RTCDL
      000000D0H   SFRSYM    DATA     BYTE      PSW
      000000C5H   SFRSYM    DATA     BYTE      ATKML
      000000AAH   SFRSYM    DATA     BYTE      WDCON
      000000A6H   SFRSYM    DATA     BYTE      SPDAT
      01002186H   SYMBOL    CODE     ---       _get_week
      01003952H   SYMBOL    CODE     ---       _alarm_timeout_opera

      010038AEH   BLOCK     CODE     ---       LVL=0
      010038AEH   LINE      CODE     ---       #77
      010038AEH   LINE      CODE     ---       #78
      010038AEH   LINE      CODE     ---       #79
      010038D5H   LINE      CODE     ---       #85
LX51 LINKER/LOCATER V4.66.97.0                                                        04/10/2021  13:15:07  PAGE 95


      ---         BLOCKEND  ---      ---       LVL=0

      01003BA5H   BLOCK     CODE     ---       LVL=0
      01003BA5H   LINE      CODE     ---       #97
      01003BA5H   LINE      CODE     ---       #98
      01003BA5H   LINE      CODE     ---       #102
      01003BA8H   LINE      CODE     ---       #105
      01003BAFH   LINE      CODE     ---       #107
      01003BB2H   LINE      CODE     ---       #108
      01003BB4H   LINE      CODE     ---       #109
      ---         BLOCKEND  ---      ---       LVL=0

      01003795H   BLOCK     CODE     VOID      LVL=0
      ---         BLOCKEND  ---      ---       LVL=0

      0100379AH   BLOCK     CODE     ---       LVL=0
      00000002H   SYMBOL    DATA     WORD      _year
      0100379AH   LINE      CODE     ---       #121
      0100379EH   LINE      CODE     ---       #122
      0100379EH   LINE      CODE     ---       #123
      010037A3H   LINE      CODE     ---       #124
      010037A3H   LINE      CODE     ---       #125
      010037ADH   LINE      CODE     ---       #126
      010037ADH   LINE      CODE     ---       #127
      010037BEH   LINE      CODE     ---       #128
      010037BEH   LINE      CODE     ---       #129
      010037C0H   LINE      CODE     ---       #130
      010037C0H   LINE      CODE     ---       #132
      010037C0H   LINE      CODE     ---       #133
      010037C1H   LINE      CODE     ---       #134
      010037C1H   LINE      CODE     ---       #135
      010037C1H   LINE      CODE     ---       #137
      010037C1H   LINE      CODE     ---       #138
      010037C4H   LINE      CODE     ---       #139
      010037C4H   LINE      CODE     ---       #140
      010037C4H   LINE      CODE     ---       #142
      010037C4H   LINE      CODE     ---       #143
      010037C6H   LINE      CODE     ---       #144
      010037C6H   LINE      CODE     ---       #145
      ---         BLOCKEND  ---      ---       LVL=0

      01002EF9H   BLOCK     CODE     ---       LVL=0
      00000006H   SYMBOL    DATA     WORD      _year
      00000005H   SYMBOL    DATA     BYTE      _month
      00000001H   SYMBOL    DATA     BYTE      _day
      01002EF9H   LINE      CODE     ---       #156
      01002EFBH   LINE      CODE     ---       #157
      01002EFBH   LINE      CODE     ---       #158
      01002F10H   LINE      CODE     ---       #159
      01002F10H   LINE      CODE     ---       #160
      01002F1CH   LINE      CODE     ---       #161
      01002F1CH   LINE      CODE     ---       #162
      01002F1EH   LINE      CODE     ---       #163
      01002F1EH   LINE      CODE     ---       #165
      01002F1EH   LINE      CODE     ---       #166
      01002F1FH   LINE      CODE     ---       #167
      01002F1FH   LINE      CODE     ---       #168
      01002F1FH   LINE      CODE     ---       #169
      01002F24H   LINE      CODE     ---       #170
      01002F24H   LINE      CODE     ---       #171
      01002F2AH   LINE      CODE     ---       #172
      01002F2AH   LINE      CODE     ---       #173
      01002F36H   LINE      CODE     ---       #174
      01002F36H   LINE      CODE     ---       #175
      01002F38H   LINE      CODE     ---       #176
LX51 LINKER/LOCATER V4.66.97.0                                                        04/10/2021  13:15:07  PAGE 96


      01002F38H   LINE      CODE     ---       #178
      01002F38H   LINE      CODE     ---       #179
      01002F39H   LINE      CODE     ---       #180
      01002F39H   LINE      CODE     ---       #181
      01002F39H   LINE      CODE     ---       #183
      01002F39H   LINE      CODE     ---       #184
      01002F45H   LINE      CODE     ---       #185
      01002F45H   LINE      CODE     ---       #186
      01002F47H   LINE      CODE     ---       #187
      01002F47H   LINE      CODE     ---       #189
      01002F47H   LINE      CODE     ---       #190
      01002F48H   LINE      CODE     ---       #191
      01002F48H   LINE      CODE     ---       #192
      01002F48H   LINE      CODE     ---       #193
      01002F48H   LINE      CODE     ---       #195
      01002F48H   LINE      CODE     ---       #196
      01002F54H   LINE      CODE     ---       #197
      01002F54H   LINE      CODE     ---       #198
      01002F56H   LINE      CODE     ---       #199
      01002F56H   LINE      CODE     ---       #201
      01002F56H   LINE      CODE     ---       #202
      01002F56H   LINE      CODE     ---       #203
      01002F56H   LINE      CODE     ---       #204
      01002F56H   LINE      CODE     ---       #205
      ---         BLOCKEND  ---      ---       LVL=0

      010036F9H   BLOCK     CODE     ---       LVL=0
      00000006H   SYMBOL    DATA     WORD      _year
      00000005H   SYMBOL    DATA     BYTE      _month
      010036F9H   LINE      CODE     ---       #216
      010036F9H   LINE      CODE     ---       #217
      010036F9H   LINE      CODE     ---       #218
      01003710H   LINE      CODE     ---       #219
      01003710H   LINE      CODE     ---       #220
      01003716H   LINE      CODE     ---       #221
      01003717H   LINE      CODE     ---       #222
      0100371DH   LINE      CODE     ---       #223
      0100371DH   LINE      CODE     ---       #224
      01003726H   LINE      CODE     ---       #225
      01003726H   LINE      CODE     ---       #226
      01003729H   LINE      CODE     ---       #227
      0100372AH   LINE      CODE     ---       #229
      0100372AH   LINE      CODE     ---       #230
      0100372DH   LINE      CODE     ---       #231
      0100372DH   LINE      CODE     ---       #232
      0100372DH   LINE      CODE     ---       #237
      ---         BLOCKEND  ---      ---       LVL=0

      010015C4H   BLOCK     CODE     ---       LVL=0
      010015C4H   BLOCK     CODE     NEAR LAB  LVL=1
      02000000H   SYMBOL    XDATA    WORD      day_remain
      02000002H   SYMBOL    XDATA    WORD      get_year
      00000001H   SYMBOL    DATA     BYTE      get_month
      ---         BLOCKEND  ---      ---       LVL=1
      010015C4H   LINE      CODE     ---       #250
      010015C4H   LINE      CODE     ---       #251
      010015C4H   LINE      CODE     ---       #252
      010015CBH   LINE      CODE     ---       #253
      010015D3H   LINE      CODE     ---       #254
      010015D5H   LINE      CODE     ---       #256
      010015DBH   LINE      CODE     ---       #257
      010015E1H   LINE      CODE     ---       #258
      010015E9H   LINE      CODE     ---       #259
      010015F3H   LINE      CODE     ---       #260
      010015FDH   LINE      CODE     ---       #261
LX51 LINKER/LOCATER V4.66.97.0                                                        04/10/2021  13:15:07  PAGE 97


      0100160AH   LINE      CODE     ---       #264
      01001619H   LINE      CODE     ---       #265
      01001619H   LINE      CODE     ---       #266
      01001622H   LINE      CODE     ---       #267
      01001622H   LINE      CODE     ---       #268
      01001631H   LINE      CODE     ---       #269
      01001631H   LINE      CODE     ---       #270
      01001635H   LINE      CODE     ---       #271
      01001637H   LINE      CODE     ---       #273
      01001637H   LINE      CODE     ---       #274
      01001637H   LINE      CODE     ---       #275
      01001637H   LINE      CODE     ---       #276
      01001637H   LINE      CODE     ---       #278
      01001637H   LINE      CODE     ---       #279
      01001645H   LINE      CODE     ---       #280
      01001645H   LINE      CODE     ---       #281
      01001653H   LINE      CODE     ---       #282
      01001655H   LINE      CODE     ---       #283
      01001664H   LINE      CODE     ---       #286
      01001673H   LINE      CODE     ---       #287
      01001673H   LINE      CODE     ---       #288
      01001681H   LINE      CODE     ---       #289
      01001681H   LINE      CODE     ---       #290
      01001690H   LINE      CODE     ---       #291
      01001690H   LINE      CODE     ---       #292
      0100169CH   LINE      CODE     ---       #293
      0100169EH   LINE      CODE     ---       #295
      0100169EH   LINE      CODE     ---       #296
      0100169EH   LINE      CODE     ---       #297
      0100169EH   LINE      CODE     ---       #298
      0100169EH   LINE      CODE     ---       #300
      0100169EH   LINE      CODE     ---       #301
      010016B3H   LINE      CODE     ---       #302
      010016B3H   LINE      CODE     ---       #303
      010016C6H   LINE      CODE     ---       #304
      010016C6H   LINE      CODE     ---       #306
      010016C6H   LINE      CODE     ---       #307
      010016C6H   LINE      CODE     ---       #308
      010016C6H   LINE      CODE     ---       #309
      010016C6H   LINE      CODE     ---       #310
      010016C7H   LINE      CODE     ---       #311
      010016C9H   LINE      CODE     ---       #312
      010016CFH   LINE      CODE     ---       #313
      010016D9H   LINE      CODE     ---       #314
      ---         BLOCKEND  ---      ---       LVL=0

      01002186H   BLOCK     CODE     ---       LVL=0
      0200000CH   SYMBOL    XDATA    WORD      _year
      0200000EH   SYMBOL    XDATA    BYTE      _month
      0200000FH   SYMBOL    XDATA    BYTE      _day
      01002194H   BLOCK     CODE     NEAR LAB  LVL=1
      00000006H   SYMBOL    DATA     WORD      temp2
      00000003H   SYMBOL    DATA     BYTE      yearH
      02000010H   SYMBOL    XDATA    BYTE      yearL
      ---         BLOCKEND  ---      ---       LVL=1
      01002186H   LINE      CODE     ---       #325
      01002194H   LINE      CODE     ---       #326
      01002194H   LINE      CODE     ---       #330
      010021B9H   LINE      CODE     ---       #332
      010021C5H   LINE      CODE     ---       #333
      010021C5H   LINE      CODE     ---       #334
      010021C9H   LINE      CODE     ---       #335
      010021C9H   LINE      CODE     ---       #337
      010021D9H   LINE      CODE     ---       #338
      010021E4H   LINE      CODE     ---       #339
LX51 LINKER/LOCATER V4.66.97.0                                                        04/10/2021  13:15:07  PAGE 98


      010021FDH   LINE      CODE     ---       #340
      0100220FH   LINE      CODE     ---       #341
      0100220FH   LINE      CODE     ---       #342
      01002214H   LINE      CODE     ---       #343
      01002214H   LINE      CODE     ---       #344
      0100221DH   LINE      CODE     ---       #345
      ---         BLOCKEND  ---      ---       LVL=0

      010017E9H   BLOCK     CODE     ---       LVL=0
      02000000H   SYMBOL    XDATA    WORD      s_year
      02000002H   SYMBOL    XDATA    BYTE      s_month
      02000003H   SYMBOL    XDATA    BYTE      s_day
      02000004H   SYMBOL    XDATA    BYTE      s_hour
      02000005H   SYMBOL    XDATA    BYTE      s_minute
      02000006H   SYMBOL    XDATA    BYTE      s_second
      010017F7H   BLOCK     CODE     NEAR LAB  LVL=1
      02000007H   SYMBOL    XDATA    WORD      rtc_day
      02000009H   SYMBOL    XDATA    WORD      year_number
      00000001H   SYMBOL    DATA     BYTE      month_number
      0200000BH   SYMBOL    XDATA    BYTE      s_week
      ---         BLOCKEND  ---      ---       LVL=1
      010017E9H   LINE      CODE     ---       #356
      010017F7H   LINE      CODE     ---       #357
      010017F7H   LINE      CODE     ---       #358
      010017FEH   LINE      CODE     ---       #359
      01001806H   LINE      CODE     ---       #360
      01001808H   LINE      CODE     ---       #361
      0100180AH   LINE      CODE     ---       #363
      01001820H   LINE      CODE     ---       #364
      01001820H   LINE      CODE     ---       #365
      01001829H   LINE      CODE     ---       #366
      01001829H   LINE      CODE     ---       #367
      0100182CH   LINE      CODE     ---       #368
      0100182EH   LINE      CODE     ---       #370
      0100182EH   LINE      CODE     ---       #371
      01001839H   LINE      CODE     ---       #372
      01001839H   LINE      CODE     ---       #373
      01001849H   LINE      CODE     ---       #375
      01001854H   LINE      CODE     ---       #376
      01001854H   LINE      CODE     ---       #377
      01001867H   LINE      CODE     ---       #378
      01001875H   LINE      CODE     ---       #379
      01001875H   LINE      CODE     ---       #380
      01001883H   LINE      CODE     ---       #381
      01001883H   LINE      CODE     ---       #382
      01001886H   LINE      CODE     ---       #383
      0100189EH   LINE      CODE     ---       #384
      010018B1H   LINE      CODE     ---       #385
      010018B3H   LINE      CODE     ---       #386
      010018B3H   LINE      CODE     ---       #387
      010018B6H   LINE      CODE     ---       #388
      010018B6H   LINE      CODE     ---       #390
      010018B9H   LINE      CODE     ---       #391
      010018BFH   LINE      CODE     ---       #392
      010018C5H   LINE      CODE     ---       #393
      010018D5H   LINE      CODE     ---       #395
      010018E0H   LINE      CODE     ---       #396
      010018E2H   LINE      CODE     ---       #398
      010018E9H   LINE      CODE     ---       #399
      010018ECH   LINE      CODE     ---       #400
      ---         BLOCKEND  ---      ---       LVL=0

      01003952H   BLOCK     CODE     ---       LVL=0
      00000007H   SYMBOL    DATA     BYTE      _alarm
      01003952H   LINE      CODE     ---       #412
LX51 LINKER/LOCATER V4.66.97.0                                                        04/10/2021  13:15:07  PAGE 99


      01003952H   LINE      CODE     ---       #413
      01003952H   LINE      CODE     ---       #414
      01003957H   LINE      CODE     ---       #415
      0100395DH   LINE      CODE     ---       #416
      01003964H   LINE      CODE     ---       #418
      01003968H   LINE      CODE     ---       #419
      0100396EH   LINE      CODE     ---       #421
      01003973H   LINE      CODE     ---       #422
      01003979H   LINE      CODE     ---       #423
      ---         BLOCKEND  ---      ---       LVL=0

      01003343H   BLOCK     CODE     ---       LVL=0
      01003343H   BLOCK     CODE     NEAR LAB  LVL=1
      00000007H   SYMBOL    DATA     BYTE      snooze_minute_temp
      00000006H   SYMBOL    DATA     BYTE      snooze_hour_temp
      ---         BLOCKEND  ---      ---       LVL=1
      01003343H   LINE      CODE     ---       #435
      01003343H   LINE      CODE     ---       #436
      01003343H   LINE      CODE     ---       #437
      01003343H   LINE      CODE     ---       #439
      01003352H   LINE      CODE     ---       #440
      0100335AH   LINE      CODE     ---       #441
      01003362H   LINE      CODE     ---       #444
      01003369H   LINE      CODE     ---       #445
      0100336EH   LINE      CODE     ---       #446
      01003378H   LINE      CODE     ---       #447
      01003378H   LINE      CODE     ---       #448
      0100337CH   LINE      CODE     ---       #449
      0100337DH   LINE      CODE     ---       #450
      0100337DH   LINE      CODE     ---       #451
      01003382H   LINE      CODE     ---       #452
      01003385H   LINE      CODE     ---       #453
      01003389H   LINE      CODE     ---       #454
      ---         BLOCKEND  ---      ---       LVL=0

      01003901H   BLOCK     CODE     ---       LVL=0
      01003901H   LINE      CODE     ---       #466
      01003901H   LINE      CODE     ---       #467
      01003901H   LINE      CODE     ---       #468
      0100390BH   LINE      CODE     ---       #469
      0100390BH   LINE      CODE     ---       #470
      01003921H   LINE      CODE     ---       #471
      01003921H   LINE      CODE     ---       #472
      01003929H   LINE      CODE     ---       #473
      01003929H   LINE      CODE     ---       #474
      01003929H   LINE      CODE     ---       #475
      ---         BLOCKEND  ---      ---       LVL=0

      010018EDH   BLOCK     CODE     ---       LVL=0
      010018EDH   LINE      CODE     ---       #486
      010018EDH   LINE      CODE     ---       #487
      010018EDH   LINE      CODE     ---       #488
      010018F6H   LINE      CODE     ---       #489
      010018F6H   LINE      CODE     ---       #491
      010018FDH   LINE      CODE     ---       #492
      010018FDH   LINE      CODE     ---       #493
      0100190FH   LINE      CODE     ---       #494
      0100190FH   LINE      CODE     ---       #497
      01001920H   LINE      CODE     ---       #498
      01001920H   LINE      CODE     ---       #499
      01001920H   LINE      CODE     ---       #500
      0100192CH   LINE      CODE     ---       #501
      0100192CH   LINE      CODE     ---       #502
      0100192EH   LINE      CODE     ---       #503
      0100192EH   LINE      CODE     ---       #504
LX51 LINKER/LOCATER V4.66.97.0                                                        04/10/2021  13:15:07  PAGE 100


      01001942H   LINE      CODE     ---       #505
      01001942H   LINE      CODE     ---       #506
      01001942H   LINE      CODE     ---       #507
      01001942H   LINE      CODE     ---       #508
      01001944H   LINE      CODE     ---       #509
      01001944H   LINE      CODE     ---       #510
      01001944H   LINE      CODE     ---       #511
      01001946H   LINE      CODE     ---       #512
      01001946H   LINE      CODE     ---       #513
      0100195AH   LINE      CODE     ---       #514
      0100195AH   LINE      CODE     ---       #515
      0100195FH   LINE      CODE     ---       #516
      0100195FH   LINE      CODE     ---       #517
      0100195FH   LINE      CODE     ---       #518
      0100195FH   LINE      CODE     ---       #519
      0100195FH   LINE      CODE     ---       #520
      0100195FH   LINE      CODE     ---       #521
      0100195FH   LINE      CODE     ---       #523
      01001966H   LINE      CODE     ---       #524
      01001966H   LINE      CODE     ---       #525
      01001978H   LINE      CODE     ---       #526
      01001978H   LINE      CODE     ---       #528
      01001989H   LINE      CODE     ---       #529
      01001989H   LINE      CODE     ---       #530
      01001989H   LINE      CODE     ---       #531
      01001995H   LINE      CODE     ---       #532
      01001995H   LINE      CODE     ---       #533
      01001997H   LINE      CODE     ---       #534
      01001997H   LINE      CODE     ---       #535
      010019ABH   LINE      CODE     ---       #536
      010019ABH   LINE      CODE     ---       #537
      010019ABH   LINE      CODE     ---       #538
      010019ABH   LINE      CODE     ---       #539
      010019ADH   LINE      CODE     ---       #540
      010019ADH   LINE      CODE     ---       #541
      010019ADH   LINE      CODE     ---       #542
      010019AFH   LINE      CODE     ---       #543
      010019AFH   LINE      CODE     ---       #544
      010019C3H   LINE      CODE     ---       #545
      010019C3H   LINE      CODE     ---       #546
      010019C8H   LINE      CODE     ---       #547
      010019C8H   LINE      CODE     ---       #548
      010019C8H   LINE      CODE     ---       #549
      010019C8H   LINE      CODE     ---       #550
      010019C8H   LINE      CODE     ---       #551
      010019C8H   LINE      CODE     ---       #552
      010019C8H   LINE      CODE     ---       #553
      010019C8H   LINE      CODE     ---       #554
      ---         BLOCKEND  ---      ---       LVL=0

      010035D7H   BLOCK     CODE     ---       LVL=0
      010035D7H   LINE      CODE     ---       #565
      010035D7H   LINE      CODE     ---       #566
      010035D7H   LINE      CODE     ---       #568
      010035DDH   LINE      CODE     ---       #569
      010035DDH   LINE      CODE     ---       #570
      010035F2H   LINE      CODE     ---       #571
      010035F2H   LINE      CODE     ---       #572
      010035F7H   LINE      CODE     ---       #573
      01003602H   LINE      CODE     ---       #574
      01003602H   LINE      CODE     ---       #575
      01003612H   LINE      CODE     ---       #576
      01003612H   LINE      CODE     ---       #577
      01003612H   LINE      CODE     ---       #578
      01003612H   LINE      CODE     ---       #583
LX51 LINKER/LOCATER V4.66.97.0                                                        04/10/2021  13:15:07  PAGE 101


      ---         BLOCKEND  ---      ---       LVL=0

      010033CEH   BLOCK     CODE     ---       LVL=0
      010033CEH   BLOCK     CODE     NEAR LAB  LVL=1
      02000278H   SYMBOL    XDATA    BYTE      changed
      ---         BLOCKEND  ---      ---       LVL=1
      010033CEH   LINE      CODE     ---       #602
      010033CEH   LINE      CODE     ---       #603
      010033CEH   LINE      CODE     ---       #605
      010033D6H   LINE      CODE     ---       #606
      010033D6H   LINE      CODE     ---       #607
      010033DCH   LINE      CODE     ---       #608
      010033DCH   LINE      CODE     ---       #609
      010033E2H   LINE      CODE     ---       #610
      010033E2H   LINE      CODE     ---       #611
      010033E9H   LINE      CODE     ---       #612
      010033EFH   LINE      CODE     ---       #613
      010033EFH   LINE      CODE     ---       #614
      010033F1H   LINE      CODE     ---       #615
      010033F1H   LINE      CODE     ---       #616
      010033F7H   LINE      CODE     ---       #617
      010033F7H   LINE      CODE     ---       #618
      010033FAH   LINE      CODE     ---       #619
      010033FAH   LINE      CODE     ---       #621
      01003400H   LINE      CODE     ---       #622
      01003400H   LINE      CODE     ---       #623
      01003403H   LINE      CODE     ---       #624
      01003403H   LINE      CODE     ---       #625
      01003403H   LINE      CODE     ---       #627
      01003403H   LINE      CODE     ---       #628
      01003409H   LINE      CODE     ---       #629
      01003409H   LINE      CODE     ---       #630
      0100340BH   LINE      CODE     ---       #631
      0100340EH   LINE      CODE     ---       #632
      0100340EH   LINE      CODE     ---       #633
      01003411H   LINE      CODE     ---       #634
      01003411H   LINE      CODE     ---       #635
      01003411H   LINE      CODE     ---       #636
      01003411H   LINE      CODE     ---       #637
      ---         BLOCKEND  ---      ---       LVL=0

      ---         MODULE    ---      ---       BAT
      020002F9H   PUBLIC    XDATA    BYTE      lowspeed
      020002F7H   PUBLIC    XDATA    BYTE      flag_dc_5v
      020002F6H   PUBLIC    XDATA    BYTE      time_to_enter_lowspeed
      020002F2H   PUBLIC    XDATA    WORD      low_power_test_time
      01002E3AH   PUBLIC    CODE     ---       quit_low_speed_mode
      0100300FH   PUBLIC    CODE     ---       enter_low_speed_mode
      01003BB5H   PUBLIC    CODE     ---       nothing_action_test
      01003B05H   PUBLIC    CODE     ---       test_5v_in_lowspeed
      01003B5DH   PUBLIC    CODE     ---       low_vol_opera
      010037C7H   PUBLIC    CODE     ---       bat_vol_test
      01002F57H   PUBLIC    CODE     ---       test_5v_in
      01003C44H   PUBLIC    CODE     ---       close_bat_adc
      01003C10H   PUBLIC    CODE     ---       bat_ADC_init
      01003C36H   PUBLIC    CODE     ---       test_5v_init
      000000E3H   SFRSYM    DATA     BYTE      LXDAT
      000000C4H   SFRSYM    DATA     BYTE      TKCHS
      00000080H   SFRSYM    DATA     BYTE      P0
      000000C1H   SFRSYM    DATA     BYTE      TKCON
      00000090H   SFRSYM    DATA     BYTE      P1
      000000A0H   SFRSYM    DATA     BYTE      P2
      000000C0H.6 SFRSYM    DATA     BIT       MOTOR_SWITCH_ADC_GPIO
      000000C0H.0 SFRSYM    DATA     BIT       is_busy
      000000B0H   SFRSYM    DATA     BYTE      P3
LX51 LINKER/LOCATER V4.66.97.0                                                        04/10/2021  13:15:07  PAGE 102


      000000C0H.2 SFRSYM    DATA     BIT       DC_5V_GPIO
      000000D0H.6 SFRSYM    DATA     BIT       AC
      000000C0H   SFRSYM    DATA     BYTE      P4
      000000D8H   SFRSYM    DATA     BYTE      P5
      000000A5H   SFRSYM    DATA     BYTE      SPCON
      000000A8H.7 SFRSYM    DATA     BIT       EA
      000000E1H   SFRSYM    DATA     BYTE      LXCON
      000000A9H   SFRSYM    DATA     BYTE      P6
      000000C8H.0 SFRSYM    DATA     BIT       T2P0
      000000D9H   SFRSYM    DATA     BYTE      P7
      000000C8H.1 SFRSYM    DATA     BIT       T2P1
      000000F1H   SFRSYM    DATA     BYTE      RTCON
      000000C8H.4 SFRSYM    DATA     BIT       T2R0
      000000DAH   SFRSYM    DATA     BYTE      PWMEN
      000000CFH   SFRSYM    DATA     BYTE      TKMSH
      00000086H   SFRSYM    DATA     BYTE      PWCON
      000000C8H.5 SFRSYM    DATA     BIT       T2R1
      000000C0H.2 SFRSYM    DATA     BIT       dc_5v_in
      000000CEH   SFRSYM    DATA     BYTE      TKMSL
      000000A7H   SFRSYM    DATA     BYTE      SPSTA
      00000083H   SFRSYM    DATA     BYTE      DP0H
      000000A8H   SFRSYM    DATA     BYTE      IE
      00000085H   SFRSYM    DATA     BYTE      DP1H
      000000E9H   SFRSYM    DATA     BYTE      RTCSS
      00000082H   SFRSYM    DATA     BYTE      DP0L
      000000C0H.1 SFRSYM    DATA     BIT       BAT_ADC_GPIO
      000000CBH   SFRSYM    DATA     BYTE      T2CH
      000000B3H   SFRSYM    DATA     BYTE      I2CADM
      00000084H   SFRSYM    DATA     BYTE      DP1L
      000000C8H.3 SFRSYM    DATA     BIT       T2IE
      000000C3H   SFRSYM    DATA     BYTE      TKMTS
      000000C0H.7 SFRSYM    DATA     BIT       MODE_SWITCH_ADC_GPIO
      000000CAH   SFRSYM    DATA     BYTE      T2CL
      000000B2H   SFRSYM    DATA     BYTE      I2CADR
      000000B4H   SFRSYM    DATA     BYTE      I2CCCR
      000000B8H   SFRSYM    DATA     BYTE      IP
      000000B7H   SFRSYM    DATA     BYTE      I2CFLG
      000000B5H   SFRSYM    DATA     BYTE      I2CDAT
      000000EDH   SFRSYM    DATA     BYTE      RTMSS
      000000D0H.7 SFRSYM    DATA     BIT       CY
      000000BBH   SFRSYM    DATA     BYTE      ADCFGH
      000000DCH   SFRSYM    DATA     BYTE      PWMCMAX
      000000B1H   SFRSYM    DATA     BYTE      I2CCON
      000000D1H   SFRSYM    DATA     BYTE      PWMDIVH
      000000BAH   SFRSYM    DATA     BYTE      ADCFGL
      00000081H   SFRSYM    DATA     BYTE      SP
      000000F9H   SFRSYM    DATA     BYTE      EPIE
      000000D0H.2 SFRSYM    DATA     BIT       OV
      000000FAH   SFRSYM    DATA     BYTE      EPIF
      000000DFH   SFRSYM    DATA     BYTE      PWMDIVL
      000000B6H   SFRSYM    DATA     BYTE      I2CSTA
      000000E8H   SFRSYM    DATA     BYTE      EXIE
      000000D3H   SFRSYM    DATA     BYTE      PWMDUTH
      000000C7H   SFRSYM    DATA     BYTE      TKIF
      0000008FH   SFRSYM    DATA     BYTE      IT0CON
      00000080H.0 SFRSYM    DATA     BIT       P00
      000000ECH   SFRSYM    DATA     BYTE      RTAH
      000000D2H   SFRSYM    DATA     BYTE      PWMDUTL
      0000008EH   SFRSYM    DATA     BYTE      IT1CON
      00000090H.0 SFRSYM    DATA     BIT       P10
      00000080H.1 SFRSYM    DATA     BIT       P01
      0000009DH   SFRSYM    DATA     BYTE      S1RELH
      00000087H   SFRSYM    DATA     BYTE      PCON
      000000A0H.0 SFRSYM    DATA     BIT       P20
      00000090H.1 SFRSYM    DATA     BIT       P11
LX51 LINKER/LOCATER V4.66.97.0                                                        04/10/2021  13:15:07  PAGE 103


      00000080H.2 SFRSYM    DATA     BIT       P02
      000000E8H.0 SFRSYM    DATA     BIT       INT2EN
      000000F4H   SFRSYM    DATA     BYTE      RTCH
      000000A4H   SFRSYM    DATA     BYTE      S2RELH
      000000B0H.2 SFRSYM    DATA     BIT       LED_SW_MOD_GPIO
      000000B0H.0 SFRSYM    DATA     BIT       P30
      000000A0H.1 SFRSYM    DATA     BIT       P21
      00000090H.2 SFRSYM    DATA     BIT       P12
      00000080H.3 SFRSYM    DATA     BIT       P03
      000000E8H.1 SFRSYM    DATA     BIT       INT3EN
      000000C0H.0 SFRSYM    DATA     BIT       P40
      000000B0H.1 SFRSYM    DATA     BIT       P31
      000000A0H.2 SFRSYM    DATA     BIT       P22
      00000090H.3 SFRSYM    DATA     BIT       P13
      00000080H.4 SFRSYM    DATA     BIT       P04
      000000E8H.2 SFRSYM    DATA     BIT       INT4EN
      000000D8H.0 SFRSYM    DATA     BIT       P50
      000000C0H.1 SFRSYM    DATA     BIT       P41
      000000B0H.2 SFRSYM    DATA     BIT       P32
      000000A0H.3 SFRSYM    DATA     BIT       P23
      00000090H.4 SFRSYM    DATA     BIT       P14
      00000080H.5 SFRSYM    DATA     BIT       P05
      000000E8H.3 SFRSYM    DATA     BIT       INT5EN
      000000EBH   SFRSYM    DATA     BYTE      RTAM
      0000009CH   SFRSYM    DATA     BYTE      S1RELL
      00000089H   SFRSYM    DATA     BYTE      TMOD
      00000088H   SFRSYM    DATA     BYTE      TCON
      000000D8H.1 SFRSYM    DATA     BIT       P51
      000000C0H.2 SFRSYM    DATA     BIT       P42
      000000B0H.3 SFRSYM    DATA     BIT       P33
      000000A0H.4 SFRSYM    DATA     BIT       P24
      00000090H.5 SFRSYM    DATA     BIT       P15
      00000080H.6 SFRSYM    DATA     BIT       P06
      000000E8H.4 SFRSYM    DATA     BIT       INT6EN
      000000A3H   SFRSYM    DATA     BYTE      S2RELL
      000000D8H.2 SFRSYM    DATA     BIT       P52
      000000C0H.3 SFRSYM    DATA     BIT       P43
      000000B0H.4 SFRSYM    DATA     BIT       P34
      000000A0H.5 SFRSYM    DATA     BIT       P25
      00000090H.6 SFRSYM    DATA     BIT       P16
      00000080H.7 SFRSYM    DATA     BIT       P07
      000000E8H.5 SFRSYM    DATA     BIT       INT7EN
      000000C8H.2 SFRSYM    DATA     BIT       UCKS
      000000F8H   SFRSYM    DATA     BYTE      EXIP
      000000F3H   SFRSYM    DATA     BYTE      RTCM
      000000D8H.3 SFRSYM    DATA     BIT       P53
      000000C0H.4 SFRSYM    DATA     BIT       P44
      000000B0H.5 SFRSYM    DATA     BIT       P35
      000000A0H.6 SFRSYM    DATA     BIT       P26
      00000090H.7 SFRSYM    DATA     BIT       P17
      000000E8H.6 SFRSYM    DATA     BIT       INT8EN
      000000D8H.4 SFRSYM    DATA     BIT       P54
      000000C0H.5 SFRSYM    DATA     BIT       P45
      000000B0H.6 SFRSYM    DATA     BIT       P36
      000000A0H.7 SFRSYM    DATA     BIT       P27
      000000E8H.7 SFRSYM    DATA     BIT       INT9EN
      000000D8H.5 SFRSYM    DATA     BIT       P55
      000000C0H.6 SFRSYM    DATA     BIT       P46
      000000B0H.7 SFRSYM    DATA     BIT       P37
      000000D8H.6 SFRSYM    DATA     BIT       P56
      000000C0H.7 SFRSYM    DATA     BIT       P47
      000000EAH   SFRSYM    DATA     BYTE      RTAS
      000000AFH   SFRSYM    DATA     BYTE      HVTH
      00000095H   SFRSYM    DATA     BYTE      RCTAGH
      000000D8H.7 SFRSYM    DATA     BIT       P57
LX51 LINKER/LOCATER V4.66.97.0                                                        04/10/2021  13:15:07  PAGE 104


      000000F2H   SFRSYM    DATA     BYTE      RTCS
      00000088H.1 SFRSYM    DATA     BIT       IE0
      00000088H.3 SFRSYM    DATA     BIT       IE1
      00000094H   SFRSYM    DATA     BYTE      RCTAGL
      000000F0H   SFRSYM    DATA     BYTE      B
      000000E7H   SFRSYM    DATA     BYTE      MDUDAT
      000000C0H.0 SFRSYM    DATA     BIT       busy
      000000DEH   SFRSYM    DATA     BYTE      PWMCFG
      000000D4H   SFRSYM    DATA     BYTE      PWMAIF
      000000E0H   SFRSYM    DATA     BYTE      ACC
      000000D5H   SFRSYM    DATA     BYTE      PWMBIF
      0000009FH   SFRSYM    DATA     BYTE      RCMSHH
      000000A8H.4 SFRSYM    DATA     BIT       ES0
      000000EFH   SFRSYM    DATA     BYTE      LVDCON
      000000E6H   SFRSYM    DATA     BYTE      MDUCON
      000000D6H   SFRSYM    DATA     BYTE      PWMCIF
      000000A8H.1 SFRSYM    DATA     BIT       ET0
      000000A8H.6 SFRSYM    DATA     BIT       ES1
      000000D7H   SFRSYM    DATA     BYTE      PWMDIF
      000000A8H.3 SFRSYM    DATA     BIT       ET1
      00000088H.5 SFRSYM    DATA     BIT       TF0
      000000FDH   SFRSYM    DATA     BYTE      IDLSTH
      000000AEH   SFRSYM    DATA     BYTE      PLLCON
      000000A8H.5 SFRSYM    DATA     BIT       ET2
      00000098H.0 SFRSYM    DATA     BIT       RI0
      00000088H.7 SFRSYM    DATA     BIT       TF1
      0000009EH   SFRSYM    DATA     BYTE      RCMSHL
      00000097H   SFRSYM    DATA     BYTE      RCMSLH
      000000C8H.7 SFRSYM    DATA     BIT       TF2
      00000098H.2 SFRSYM    DATA     BIT       RB8
      0000008CH   SFRSYM    DATA     BYTE      TH0
      000000A8H.0 SFRSYM    DATA     BIT       EX0
      00000098H.1 SFRSYM    DATA     BIT       TI0
      00000088H.0 SFRSYM    DATA     BIT       IT0
      0000008DH   SFRSYM    DATA     BYTE      TH1
      000000A8H.2 SFRSYM    DATA     BIT       EX1
      00000098H.3 SFRSYM    DATA     BIT       TB8
      00000088H.2 SFRSYM    DATA     BIT       IT1
      000000FCH   SFRSYM    DATA     BYTE      IDLSTL
      000000CDH   SFRSYM    DATA     BYTE      TH2
      000000D0H.0 SFRSYM    DATA     BIT       P
      00000096H   SFRSYM    DATA     BYTE      RCMSLL
      00000098H.7 SFRSYM    DATA     BIT       SM0
      0000008AH   SFRSYM    DATA     BYTE      TL0
      00000098H.6 SFRSYM    DATA     BIT       SM1
      000000E5H   SFRSYM    DATA     BYTE      LXDIVH
      0000008BH   SFRSYM    DATA     BYTE      TL1
      000000D8H.4 SFRSYM    DATA     BIT       BL_CTL
      00000098H.5 SFRSYM    DATA     BIT       SM2
      000000CCH   SFRSYM    DATA     BYTE      TL2
      000000B8H.4 SFRSYM    DATA     BIT       PS0
      000000B8H.1 SFRSYM    DATA     BIT       PT0
      000000B8H.6 SFRSYM    DATA     BIT       PS1
      000000B8H.3 SFRSYM    DATA     BIT       PT1
      000000D0H.3 SFRSYM    DATA     BIT       RS0
      000000E4H   SFRSYM    DATA     BYTE      LXDIVL
      000000BDH   SFRSYM    DATA     BYTE      ADCDH
      000000B8H.5 SFRSYM    DATA     BIT       PT2
      00000088H.4 SFRSYM    DATA     BIT       TR0
      000000D0H.4 SFRSYM    DATA     BIT       RS1
      000000DDH   SFRSYM    DATA     BYTE      PWMCON
      00000088H.6 SFRSYM    DATA     BIT       TR1
      000000ADH   SFRSYM    DATA     BYTE      WDVTHH
      000000C8H.6 SFRSYM    DATA     BIT       TR2
      000000B8H.0 SFRSYM    DATA     BIT       PX0
LX51 LINKER/LOCATER V4.66.97.0                                                        04/10/2021  13:15:07  PAGE 105


      000000B8H.2 SFRSYM    DATA     BIT       PX1
      000000BCH   SFRSYM    DATA     BYTE      ADCDL
      000000ACH   SFRSYM    DATA     BYTE      WDVTHL
      000000DBH   SFRSYM    DATA     BYTE      PWMUPD
      000000C0H.5 SFRSYM    DATA     BIT       KEY_AD_GPIO
      00000099H   SFRSYM    DATA     BYTE      S0BUF
      0000009BH   SFRSYM    DATA     BYTE      S1BUF
      000000D8H.4 SFRSYM    DATA     BIT       BL_CTL_GPIO
      000000A2H   SFRSYM    DATA     BYTE      S2BUF
      00000098H   SFRSYM    DATA     BYTE      S0CON
      00000098H.4 SFRSYM    DATA     BIT       REN
      0000009AH   SFRSYM    DATA     BYTE      S1CON
      000000B9H   SFRSYM    DATA     BYTE      ADCON
      000000A1H   SFRSYM    DATA     BYTE      S2CON
      000000D0H.1 SFRSYM    DATA     BIT       DPS
      000000C9H   SFRSYM    DATA     BYTE      T2MOD
      000000C8H   SFRSYM    DATA     BYTE      T2CON
      000000FFH   SFRSYM    DATA     BYTE      STPSTH
      000000BFH   SFRSYM    DATA     BYTE      CKMIF
      000000FEH   SFRSYM    DATA     BYTE      STPSTL
      000000C2H   SFRSYM    DATA     BYTE      TKCFG
      00000093H   SFRSYM    DATA     BYTE      VCKDH
      000000B0H.3 SFRSYM    DATA     BIT       motor_a
      000000D0H.5 SFRSYM    DATA     BIT       F0
      000000E2H   SFRSYM    DATA     BYTE      LXCFG
      000000ABH   SFRSYM    DATA     BYTE      WDFLG
      00000092H   SFRSYM    DATA     BYTE      VCKDL
      000000B0H.7 SFRSYM    DATA     BIT       motor_b
      000000FBH   SFRSYM    DATA     BYTE      EPCON
      000000F6H   SFRSYM    DATA     BYTE      RTCDH
      000000C6H   SFRSYM    DATA     BYTE      ATKMH
      00000091H   SFRSYM    DATA     BYTE      RCCON
      000000F7H   SFRSYM    DATA     BYTE      INDEX
      000000EEH   SFRSYM    DATA     BYTE      RTCIF
      000000BEH   SFRSYM    DATA     BYTE      CKMON
      000000F5H   SFRSYM    DATA     BYTE      RTCDL
      000000D0H   SFRSYM    DATA     BYTE      PSW
      000000C5H   SFRSYM    DATA     BYTE      ATKML
      000000AAH   SFRSYM    DATA     BYTE      WDCON
      000000A6H   SFRSYM    DATA     BYTE      SPDAT
      020002F1H   SYMBOL    XDATA    BYTE      flag_low_vol
      020002F4H   SYMBOL    XDATA    BYTE      test_ok_first_time
      020002F5H   SYMBOL    XDATA    BYTE      low_vol_time_cnt
      020002F8H   SYMBOL    XDATA    BYTE      dc_5v_timer

      01003C36H   BLOCK     CODE     ---       LVL=0
      01003C36H   LINE      CODE     ---       #42
      01003C36H   LINE      CODE     ---       #43
      01003C36H   LINE      CODE     ---       #44
      01003C3CH   LINE      CODE     ---       #51
      ---         BLOCKEND  ---      ---       LVL=0

      01003C10H   BLOCK     CODE     ---       LVL=0
      01003C10H   LINE      CODE     ---       #73
      01003C10H   LINE      CODE     ---       #74
      01003C10H   LINE      CODE     ---       #75
      01003C16H   LINE      CODE     ---       #77
      01003C19H   LINE      CODE     ---       #78
      01003C1CH   LINE      CODE     ---       #79
      ---         BLOCKEND  ---      ---       LVL=0

      01003C44H   BLOCK     CODE     ---       LVL=0
      01003C44H   LINE      CODE     ---       #91
      01003C44H   LINE      CODE     ---       #92
      01003C44H   LINE      CODE     ---       #93
LX51 LINKER/LOCATER V4.66.97.0                                                        04/10/2021  13:15:07  PAGE 106


      01003C49H   LINE      CODE     ---       #94
      ---         BLOCKEND  ---      ---       LVL=0

      01002F57H   BLOCK     CODE     ---       LVL=0
      01002F57H   BLOCK     CODE     NEAR LAB  LVL=1
      020002EEH   SYMBOL    XDATA    BYTE      test_ng_first_time
      020002EFH   SYMBOL    XDATA    WORD      usb_vol
      ---         BLOCKEND  ---      ---       LVL=1
      01002F57H   LINE      CODE     ---       #106
      01002F57H   LINE      CODE     ---       #107
      01002F57H   LINE      CODE     ---       #111
      01002F5FH   LINE      CODE     ---       #112
      01002F5FH   LINE      CODE     ---       #116
      01002F62H   LINE      CODE     ---       #118
      01002F62H   LINE      CODE     ---       #119
      01002F71H   LINE      CODE     ---       #120
      01002F71H   LINE      CODE     ---       #121
      01002F74H   LINE      CODE     ---       #122
      01002F7AH   LINE      CODE     ---       #123
      01002F7FH   LINE      CODE     ---       #124
      01002F85H   LINE      CODE     ---       #125
      01002F85H   LINE      CODE     ---       #126
      01002F87H   LINE      CODE     ---       #128
      01002F8DH   LINE      CODE     ---       #129
      01002F97H   LINE      CODE     ---       #130
      01002F97H   LINE      CODE     ---       #131
      01002F97H   LINE      CODE     ---       #132
      01002F98H   LINE      CODE     ---       #135
      01002F98H   LINE      CODE     ---       #136
      01002F9DH   LINE      CODE     ---       #137
      01002FA1H   LINE      CODE     ---       #138
      01002FA5H   LINE      CODE     ---       #139
      01002FA8H   LINE      CODE     ---       #141
      01002FAEH   LINE      CODE     ---       #142
      01002FAEH   LINE      CODE     ---       #143
      01002FB0H   LINE      CODE     ---       #144
      01002FB3H   LINE      CODE     ---       #146
      01002FB3H   LINE      CODE     ---       #147
      01002FB3H   LINE      CODE     ---       #151
      01002FB3H   LINE      CODE     ---       #154
      ---         BLOCKEND  ---      ---       LVL=0

      010037C7H   BLOCK     CODE     ---       LVL=0
      010037C7H   LINE      CODE     ---       #165
      010037C7H   LINE      CODE     ---       #166
      010037C7H   LINE      CODE     ---       #167
      010037D5H   LINE      CODE     ---       #168
      010037D5H   LINE      CODE     ---       #169
      010037E4H   LINE      CODE     ---       #170
      010037E4H   LINE      CODE     ---       #171
      010037E7H   LINE      CODE     ---       #172
      010037EDH   LINE      CODE     ---       #173
      010037EDH   LINE      CODE     ---       #174
      010037EEH   LINE      CODE     ---       #176
      010037EEH   LINE      CODE     ---       #177
      010037F3H   LINE      CODE     ---       #178
      010037F7H   LINE      CODE     ---       #179
      010037F7H   LINE      CODE     ---       #180
      ---         BLOCKEND  ---      ---       LVL=0

      01003B5DH   BLOCK     CODE     ---       LVL=0
      01003B5DH   LINE      CODE     ---       #191
      01003B5DH   LINE      CODE     ---       #192
      01003B5DH   LINE      CODE     ---       #193
      01003B63H   LINE      CODE     ---       #194
LX51 LINKER/LOCATER V4.66.97.0                                                        04/10/2021  13:15:07  PAGE 107


      01003B63H   LINE      CODE     ---       #195
      01003B67H   LINE      CODE     ---       #196
      01003B69H   LINE      CODE     ---       #198
      01003B69H   LINE      CODE     ---       #199
      01003B70H   LINE      CODE     ---       #200
      01003B70H   LINE      CODE     ---       #201
      ---         BLOCKEND  ---      ---       LVL=0

      01003B05H   BLOCK     CODE     ---       LVL=0
      01003B05H   LINE      CODE     ---       #212
      01003B05H   LINE      CODE     ---       #213
      01003B05H   LINE      CODE     ---       #224
      01003B08H   LINE      CODE     ---       #225
      01003B08H   LINE      CODE     ---       #226
      01003B0BH   LINE      CODE     ---       #227
      01003B11H   LINE      CODE     ---       #228
      01003B16H   LINE      CODE     ---       #229
      01003B17H   LINE      CODE     ---       #231
      01003B17H   LINE      CODE     ---       #232
      01003B1CH   LINE      CODE     ---       #233
      01003B1CH   LINE      CODE     ---       #236
      ---         BLOCKEND  ---      ---       LVL=0

      01003BB5H   BLOCK     CODE     ---       LVL=0
      01003BB5H   LINE      CODE     ---       #241
      01003BB5H   LINE      CODE     ---       #242
      01003BB5H   LINE      CODE     ---       #251
      01003BBBH   LINE      CODE     ---       #252
      01003BBBH   LINE      CODE     ---       #253
      01003BC1H   LINE      CODE     ---       #254
      01003BC1H   LINE      CODE     ---       #255
      01003BC4H   LINE      CODE     ---       #256
      01003BC4H   LINE      CODE     ---       #257
      01003BC4H   LINE      CODE     ---       #261
      ---         BLOCKEND  ---      ---       LVL=0

      0100300FH   BLOCK     CODE     ---       LVL=0
      0100300FH   LINE      CODE     ---       #392
      0100300FH   LINE      CODE     ---       #393
      0100300FH   LINE      CODE     ---       #395
      01003014H   LINE      CODE     ---       #396
      01003018H   LINE      CODE     ---       #398
      0100301BH   LINE      CODE     ---       #400
      0100301EH   LINE      CODE     ---       #402
      01003021H   LINE      CODE     ---       #403
      01003024H   LINE      CODE     ---       #405
      01003027H   LINE      CODE     ---       #407
      0100302AH   LINE      CODE     ---       #409
      0100302CH   LINE      CODE     ---       #410
      0100302EH   LINE      CODE     ---       #412
      01003030H   LINE      CODE     ---       #413
      01003032H   LINE      CODE     ---       #418
      01003035H   LINE      CODE     ---       #421
      01003038H   LINE      CODE     ---       #422
      0100303FH   LINE      CODE     ---       #423
      01003046H   LINE      CODE     ---       #424
      0100304FH   LINE      CODE     ---       #425
      01003054H   LINE      CODE     ---       #426
      01003057H   LINE      CODE     ---       #428
      0100305CH   LINE      CODE     ---       #429
      01003061H   LINE      CODE     ---       #431
      01003069H   LINE      CODE     ---       #433
      ---         BLOCKEND  ---      ---       LVL=0

      01002E3AH   BLOCK     CODE     ---       LVL=0
LX51 LINKER/LOCATER V4.66.97.0                                                        04/10/2021  13:15:07  PAGE 108


      01002E3AH   LINE      CODE     ---       #439
      01002E3AH   LINE      CODE     ---       #440
      01002E3AH   LINE      CODE     ---       #442
      01002E3DH   LINE      CODE     ---       #443
      01002E42H   LINE      CODE     ---       #446
      01002E49H   LINE      CODE     ---       #447
      01002E4DH   LINE      CODE     ---       #448
      01002E54H   LINE      CODE     ---       #451
      01002E5AH   LINE      CODE     ---       #452
      01002E5DH   LINE      CODE     ---       #455
      01002E60H   LINE      CODE     ---       #458
      01002E62H   LINE      CODE     ---       #459
      01002E64H   LINE      CODE     ---       #462
      01002E6AH   LINE      CODE     ---       #466
      01002E6DH   LINE      CODE     ---       #467
      01002E70H   LINE      CODE     ---       #469
      01002E75H   LINE      CODE     ---       #470
      01002E78H   LINE      CODE     ---       #472
      01002E7BH   LINE      CODE     ---       #473
      01002E80H   LINE      CODE     ---       #474
      01002E86H   LINE      CODE     ---       #482
      01002E8CH   LINE      CODE     ---       #483
      01002E90H   LINE      CODE     ---       #486
      01002E94H   LINE      CODE     ---       #488
      01002E99H   LINE      CODE     ---       #489
      ---         BLOCKEND  ---      ---       LVL=0

      ---         MODULE    ---      ---       LCD
      0200030EH   PUBLIC    XDATA    BYTE      flag_clockdot_show
      0200030DH   PUBLIC    XDATA    BYTE      flag_set_flash_en
      0200030BH   PUBLIC    XDATA    WORD      g_9v_power_on_wait_time
      0200030AH   PUBLIC    XDATA    BYTE      show_in_bat_5sec
      02000309H   PUBLIC    XDATA    BYTE      lcd_mode
      02000308H   PUBLIC    XDATA    BYTE      set_no_flash_gap
      02000307H   PUBLIC    XDATA    BYTE      set_location
      01003C96H   PUBLIC    CONST    ---       num_table
      01003412H   PUBLIC    CODE     ---       lcd_display
      01003C2AH   PUBLIC    CODE     ---       lcd_volume_adjust
      01003A35H   PUBLIC    CODE     ---       lcd_clock_9v_power_on_wait
      01003856H   PUBLIC    CODE     ---       show_12_24hours
      010019C9H   PUBLIC    CODE     ---       _show_hour_minute
      010029A2H   PUBLIC    CODE     ---       show_year
      010032FBH   PUBLIC    CODE     ---       lcd_show_all
      010032B3H   PUBLIC    CODE     ---       lcd_clear
      010020EDH   PUBLIC    CODE     ---       lcd_init
      010022BDH   PUBLIC    CODE     ---       _lcd_symbol_deal
      010030C9H   PUBLIC    CODE     ---       _lcd_num_deal
      000000E3H   SFRSYM    DATA     BYTE      LXDAT
      000000C4H   SFRSYM    DATA     BYTE      TKCHS
      00000080H   SFRSYM    DATA     BYTE      P0
      000000C1H   SFRSYM    DATA     BYTE      TKCON
      00000090H   SFRSYM    DATA     BYTE      P1
      000000A0H   SFRSYM    DATA     BYTE      P2
      000000C0H.6 SFRSYM    DATA     BIT       MOTOR_SWITCH_ADC_GPIO
      000000C0H.0 SFRSYM    DATA     BIT       is_busy
      000000B0H   SFRSYM    DATA     BYTE      P3
      000000C0H.2 SFRSYM    DATA     BIT       DC_5V_GPIO
      000000D0H.6 SFRSYM    DATA     BIT       AC
      000000C0H   SFRSYM    DATA     BYTE      P4
      000000D8H   SFRSYM    DATA     BYTE      P5
      000000A5H   SFRSYM    DATA     BYTE      SPCON
      000000A8H.7 SFRSYM    DATA     BIT       EA
      000000E1H   SFRSYM    DATA     BYTE      LXCON
      000000A9H   SFRSYM    DATA     BYTE      P6
      000000C8H.0 SFRSYM    DATA     BIT       T2P0
LX51 LINKER/LOCATER V4.66.97.0                                                        04/10/2021  13:15:07  PAGE 109


      000000D9H   SFRSYM    DATA     BYTE      P7
      000000C8H.1 SFRSYM    DATA     BIT       T2P1
      000000F1H   SFRSYM    DATA     BYTE      RTCON
      000000C8H.4 SFRSYM    DATA     BIT       T2R0
      000000DAH   SFRSYM    DATA     BYTE      PWMEN
      000000CFH   SFRSYM    DATA     BYTE      TKMSH
      00000086H   SFRSYM    DATA     BYTE      PWCON
      000000C8H.5 SFRSYM    DATA     BIT       T2R1
      000000C0H.2 SFRSYM    DATA     BIT       dc_5v_in
      000000CEH   SFRSYM    DATA     BYTE      TKMSL
      000000A7H   SFRSYM    DATA     BYTE      SPSTA
      00000083H   SFRSYM    DATA     BYTE      DP0H
      000000A8H   SFRSYM    DATA     BYTE      IE
      00000085H   SFRSYM    DATA     BYTE      DP1H
      000000E9H   SFRSYM    DATA     BYTE      RTCSS
      00000082H   SFRSYM    DATA     BYTE      DP0L
      000000C0H.1 SFRSYM    DATA     BIT       BAT_ADC_GPIO
      000000CBH   SFRSYM    DATA     BYTE      T2CH
      000000B3H   SFRSYM    DATA     BYTE      I2CADM
      00000084H   SFRSYM    DATA     BYTE      DP1L
      000000C8H.3 SFRSYM    DATA     BIT       T2IE
      000000C3H   SFRSYM    DATA     BYTE      TKMTS
      000000C0H.7 SFRSYM    DATA     BIT       MODE_SWITCH_ADC_GPIO
      000000CAH   SFRSYM    DATA     BYTE      T2CL
      000000B2H   SFRSYM    DATA     BYTE      I2CADR
      000000B4H   SFRSYM    DATA     BYTE      I2CCCR
      000000B8H   SFRSYM    DATA     BYTE      IP
      000000B7H   SFRSYM    DATA     BYTE      I2CFLG
      000000B5H   SFRSYM    DATA     BYTE      I2CDAT
      000000EDH   SFRSYM    DATA     BYTE      RTMSS
      000000D0H.7 SFRSYM    DATA     BIT       CY
      000000BBH   SFRSYM    DATA     BYTE      ADCFGH
      000000DCH   SFRSYM    DATA     BYTE      PWMCMAX
      000000B1H   SFRSYM    DATA     BYTE      I2CCON
      000000D1H   SFRSYM    DATA     BYTE      PWMDIVH
      000000BAH   SFRSYM    DATA     BYTE      ADCFGL
      00000081H   SFRSYM    DATA     BYTE      SP
      000000F9H   SFRSYM    DATA     BYTE      EPIE
      000000D0H.2 SFRSYM    DATA     BIT       OV
      000000FAH   SFRSYM    DATA     BYTE      EPIF
      000000DFH   SFRSYM    DATA     BYTE      PWMDIVL
      000000B6H   SFRSYM    DATA     BYTE      I2CSTA
      000000E8H   SFRSYM    DATA     BYTE      EXIE
      000000D3H   SFRSYM    DATA     BYTE      PWMDUTH
      000000C7H   SFRSYM    DATA     BYTE      TKIF
      0000008FH   SFRSYM    DATA     BYTE      IT0CON
      00000080H.0 SFRSYM    DATA     BIT       P00
      000000ECH   SFRSYM    DATA     BYTE      RTAH
      000000D2H   SFRSYM    DATA     BYTE      PWMDUTL
      0000008EH   SFRSYM    DATA     BYTE      IT1CON
      00000090H.0 SFRSYM    DATA     BIT       P10
      00000080H.1 SFRSYM    DATA     BIT       P01
      0000009DH   SFRSYM    DATA     BYTE      S1RELH
      00000087H   SFRSYM    DATA     BYTE      PCON
      000000A0H.0 SFRSYM    DATA     BIT       P20
      00000090H.1 SFRSYM    DATA     BIT       P11
      00000080H.2 SFRSYM    DATA     BIT       P02
      000000E8H.0 SFRSYM    DATA     BIT       INT2EN
      000000F4H   SFRSYM    DATA     BYTE      RTCH
      000000A4H   SFRSYM    DATA     BYTE      S2RELH
      000000B0H.2 SFRSYM    DATA     BIT       LED_SW_MOD_GPIO
      000000B0H.0 SFRSYM    DATA     BIT       P30
      000000A0H.1 SFRSYM    DATA     BIT       P21
      00000090H.2 SFRSYM    DATA     BIT       P12
      00000080H.3 SFRSYM    DATA     BIT       P03
LX51 LINKER/LOCATER V4.66.97.0                                                        04/10/2021  13:15:07  PAGE 110


      000000E8H.1 SFRSYM    DATA     BIT       INT3EN
      000000C0H.0 SFRSYM    DATA     BIT       P40
      000000B0H.1 SFRSYM    DATA     BIT       P31
      000000A0H.2 SFRSYM    DATA     BIT       P22
      00000090H.3 SFRSYM    DATA     BIT       P13
      00000080H.4 SFRSYM    DATA     BIT       P04
      000000E8H.2 SFRSYM    DATA     BIT       INT4EN
      000000D8H.0 SFRSYM    DATA     BIT       P50
      000000C0H.1 SFRSYM    DATA     BIT       P41
      000000B0H.2 SFRSYM    DATA     BIT       P32
      000000A0H.3 SFRSYM    DATA     BIT       P23
      00000090H.4 SFRSYM    DATA     BIT       P14
      00000080H.5 SFRSYM    DATA     BIT       P05
      000000E8H.3 SFRSYM    DATA     BIT       INT5EN
      000000EBH   SFRSYM    DATA     BYTE      RTAM
      0000009CH   SFRSYM    DATA     BYTE      S1RELL
      00000089H   SFRSYM    DATA     BYTE      TMOD
      00000088H   SFRSYM    DATA     BYTE      TCON
      000000D8H.1 SFRSYM    DATA     BIT       P51
      000000C0H.2 SFRSYM    DATA     BIT       P42
      000000B0H.3 SFRSYM    DATA     BIT       P33
      000000A0H.4 SFRSYM    DATA     BIT       P24
      00000090H.5 SFRSYM    DATA     BIT       P15
      00000080H.6 SFRSYM    DATA     BIT       P06
      000000E8H.4 SFRSYM    DATA     BIT       INT6EN
      000000A3H   SFRSYM    DATA     BYTE      S2RELL
      000000D8H.2 SFRSYM    DATA     BIT       P52
      000000C0H.3 SFRSYM    DATA     BIT       P43
      000000B0H.4 SFRSYM    DATA     BIT       P34
      000000A0H.5 SFRSYM    DATA     BIT       P25
      00000090H.6 SFRSYM    DATA     BIT       P16
      00000080H.7 SFRSYM    DATA     BIT       P07
      000000E8H.5 SFRSYM    DATA     BIT       INT7EN
      000000C8H.2 SFRSYM    DATA     BIT       UCKS
      000000F8H   SFRSYM    DATA     BYTE      EXIP
      000000F3H   SFRSYM    DATA     BYTE      RTCM
      000000D8H.3 SFRSYM    DATA     BIT       P53
      000000C0H.4 SFRSYM    DATA     BIT       P44
      000000B0H.5 SFRSYM    DATA     BIT       P35
      000000A0H.6 SFRSYM    DATA     BIT       P26
      00000090H.7 SFRSYM    DATA     BIT       P17
      000000E8H.6 SFRSYM    DATA     BIT       INT8EN
      000000D8H.4 SFRSYM    DATA     BIT       P54
      000000C0H.5 SFRSYM    DATA     BIT       P45
      000000B0H.6 SFRSYM    DATA     BIT       P36
      000000A0H.7 SFRSYM    DATA     BIT       P27
      000000E8H.7 SFRSYM    DATA     BIT       INT9EN
      000000D8H.5 SFRSYM    DATA     BIT       P55
      000000C0H.6 SFRSYM    DATA     BIT       P46
      000000B0H.7 SFRSYM    DATA     BIT       P37
      000000D8H.6 SFRSYM    DATA     BIT       P56
      000000C0H.7 SFRSYM    DATA     BIT       P47
      000000EAH   SFRSYM    DATA     BYTE      RTAS
      000000AFH   SFRSYM    DATA     BYTE      HVTH
      00000095H   SFRSYM    DATA     BYTE      RCTAGH
      000000D8H.7 SFRSYM    DATA     BIT       P57
      000000F2H   SFRSYM    DATA     BYTE      RTCS
      00000088H.1 SFRSYM    DATA     BIT       IE0
      00000088H.3 SFRSYM    DATA     BIT       IE1
      00000094H   SFRSYM    DATA     BYTE      RCTAGL
      000000F0H   SFRSYM    DATA     BYTE      B
      000000E7H   SFRSYM    DATA     BYTE      MDUDAT
      000000C0H.0 SFRSYM    DATA     BIT       busy
      000000DEH   SFRSYM    DATA     BYTE      PWMCFG
      000000D4H   SFRSYM    DATA     BYTE      PWMAIF
LX51 LINKER/LOCATER V4.66.97.0                                                        04/10/2021  13:15:07  PAGE 111


      000000E0H   SFRSYM    DATA     BYTE      ACC
      000000D5H   SFRSYM    DATA     BYTE      PWMBIF
      0000009FH   SFRSYM    DATA     BYTE      RCMSHH
      000000A8H.4 SFRSYM    DATA     BIT       ES0
      000000EFH   SFRSYM    DATA     BYTE      LVDCON
      000000E6H   SFRSYM    DATA     BYTE      MDUCON
      000000D6H   SFRSYM    DATA     BYTE      PWMCIF
      000000A8H.1 SFRSYM    DATA     BIT       ET0
      000000A8H.6 SFRSYM    DATA     BIT       ES1
      000000D7H   SFRSYM    DATA     BYTE      PWMDIF
      000000A8H.3 SFRSYM    DATA     BIT       ET1
      00000088H.5 SFRSYM    DATA     BIT       TF0
      000000FDH   SFRSYM    DATA     BYTE      IDLSTH
      000000AEH   SFRSYM    DATA     BYTE      PLLCON
      000000A8H.5 SFRSYM    DATA     BIT       ET2
      00000098H.0 SFRSYM    DATA     BIT       RI0
      00000088H.7 SFRSYM    DATA     BIT       TF1
      0000009EH   SFRSYM    DATA     BYTE      RCMSHL
      00000097H   SFRSYM    DATA     BYTE      RCMSLH
      000000C8H.7 SFRSYM    DATA     BIT       TF2
      00000098H.2 SFRSYM    DATA     BIT       RB8
      0000008CH   SFRSYM    DATA     BYTE      TH0
      000000A8H.0 SFRSYM    DATA     BIT       EX0
      00000098H.1 SFRSYM    DATA     BIT       TI0
      00000088H.0 SFRSYM    DATA     BIT       IT0
      0000008DH   SFRSYM    DATA     BYTE      TH1
      000000A8H.2 SFRSYM    DATA     BIT       EX1
      00000098H.3 SFRSYM    DATA     BIT       TB8
      00000088H.2 SFRSYM    DATA     BIT       IT1
      000000FCH   SFRSYM    DATA     BYTE      IDLSTL
      000000CDH   SFRSYM    DATA     BYTE      TH2
      000000D0H.0 SFRSYM    DATA     BIT       P
      00000096H   SFRSYM    DATA     BYTE      RCMSLL
      00000098H.7 SFRSYM    DATA     BIT       SM0
      0000008AH   SFRSYM    DATA     BYTE      TL0
      00000098H.6 SFRSYM    DATA     BIT       SM1
      000000E5H   SFRSYM    DATA     BYTE      LXDIVH
      0000008BH   SFRSYM    DATA     BYTE      TL1
      000000D8H.4 SFRSYM    DATA     BIT       BL_CTL
      00000098H.5 SFRSYM    DATA     BIT       SM2
      000000CCH   SFRSYM    DATA     BYTE      TL2
      000000B8H.4 SFRSYM    DATA     BIT       PS0
      000000B8H.1 SFRSYM    DATA     BIT       PT0
      000000B8H.6 SFRSYM    DATA     BIT       PS1
      000000B8H.3 SFRSYM    DATA     BIT       PT1
      000000D0H.3 SFRSYM    DATA     BIT       RS0
      000000E4H   SFRSYM    DATA     BYTE      LXDIVL
      000000BDH   SFRSYM    DATA     BYTE      ADCDH
      000000B8H.5 SFRSYM    DATA     BIT       PT2
      00000088H.4 SFRSYM    DATA     BIT       TR0
      000000D0H.4 SFRSYM    DATA     BIT       RS1
      000000DDH   SFRSYM    DATA     BYTE      PWMCON
      00000088H.6 SFRSYM    DATA     BIT       TR1
      000000ADH   SFRSYM    DATA     BYTE      WDVTHH
      000000C8H.6 SFRSYM    DATA     BIT       TR2
      000000B8H.0 SFRSYM    DATA     BIT       PX0
      000000B8H.2 SFRSYM    DATA     BIT       PX1
      000000BCH   SFRSYM    DATA     BYTE      ADCDL
      000000ACH   SFRSYM    DATA     BYTE      WDVTHL
      000000DBH   SFRSYM    DATA     BYTE      PWMUPD
      000000C0H.5 SFRSYM    DATA     BIT       KEY_AD_GPIO
      00000099H   SFRSYM    DATA     BYTE      S0BUF
      0000009BH   SFRSYM    DATA     BYTE      S1BUF
      000000D8H.4 SFRSYM    DATA     BIT       BL_CTL_GPIO
      000000A2H   SFRSYM    DATA     BYTE      S2BUF
LX51 LINKER/LOCATER V4.66.97.0                                                        04/10/2021  13:15:07  PAGE 112


      00000098H   SFRSYM    DATA     BYTE      S0CON
      00000098H.4 SFRSYM    DATA     BIT       REN
      0000009AH   SFRSYM    DATA     BYTE      S1CON
      000000B9H   SFRSYM    DATA     BYTE      ADCON
      000000A1H   SFRSYM    DATA     BYTE      S2CON
      000000D0H.1 SFRSYM    DATA     BIT       DPS
      000000C9H   SFRSYM    DATA     BYTE      T2MOD
      000000C8H   SFRSYM    DATA     BYTE      T2CON
      000000FFH   SFRSYM    DATA     BYTE      STPSTH
      000000BFH   SFRSYM    DATA     BYTE      CKMIF
      000000FEH   SFRSYM    DATA     BYTE      STPSTL
      000000C2H   SFRSYM    DATA     BYTE      TKCFG
      00000093H   SFRSYM    DATA     BYTE      VCKDH
      000000B0H.3 SFRSYM    DATA     BIT       motor_a
      000000D0H.5 SFRSYM    DATA     BIT       F0
      000000E2H   SFRSYM    DATA     BYTE      LXCFG
      000000ABH   SFRSYM    DATA     BYTE      WDFLG
      00000092H   SFRSYM    DATA     BYTE      VCKDL
      000000B0H.7 SFRSYM    DATA     BIT       motor_b
      000000FBH   SFRSYM    DATA     BYTE      EPCON
      000000F6H   SFRSYM    DATA     BYTE      RTCDH
      000000C6H   SFRSYM    DATA     BYTE      ATKMH
      00000091H   SFRSYM    DATA     BYTE      RCCON
      000000F7H   SFRSYM    DATA     BYTE      INDEX
      000000EEH   SFRSYM    DATA     BYTE      RTCIF
      000000BEH   SFRSYM    DATA     BYTE      CKMON
      000000F5H   SFRSYM    DATA     BYTE      RTCDL
      000000D0H   SFRSYM    DATA     BYTE      PSW
      000000C5H   SFRSYM    DATA     BYTE      ATKML
      000000AAH   SFRSYM    DATA     BYTE      WDCON
      000000A6H   SFRSYM    DATA     BYTE      SPDAT
      01002DD8H   SYMBOL    CODE     ---       lcd_clock
      010027ABH   SYMBOL    CODE     ---       lcd_set_clock
      01002614H   SYMBOL    CODE     ---       lcd_set_alarm
      01002726H   SYMBOL    CODE     ---       lcd_test
      0100321DH   SYMBOL    CODE     ---       show_alarm_day_style
      010031CAH   SYMBOL    CODE     ---       show_month_day
      01002AF6H   SYMBOL    CODE     ---       _smg1_deal
      01002B61H   SYMBOL    CODE     ---       _smg2_deal
      01002BCCH   SYMBOL    CODE     ---       _smg3_deal
      01002C37H   SYMBOL    CODE     ---       _smg4_deal
      01000026H   SYMBOL    CODE     ---       lcd_set_snooze_time

      010030C3H   BLOCK     CODE     VOID      LVL=0
      ---         BLOCKEND  ---      ---       LVL=0

      010030C9H   BLOCK     CODE     ---       LVL=0
      00000007H   SYMBOL    DATA     BYTE      which
      02000002H   SYMBOL    XDATA    BYTE      deal
      02000003H   SYMBOL    XDATA    BYTE      num
      010030C9H   LINE      CODE     ---       #58
      010030D1H   LINE      CODE     ---       #59
      010030D1H   LINE      CODE     ---       #60
      010030DFH   LINE      CODE     ---       #61
      010030DFH   LINE      CODE     ---       #62
      010030EEH   LINE      CODE     ---       #63
      010030FDH   LINE      CODE     ---       #64
      0100310CH   LINE      CODE     ---       #65
      0100311BH   LINE      CODE     ---       #66
      0100311BH   LINE      CODE     ---       #67
      0100311BH   LINE      CODE     ---       #68
      ---         BLOCKEND  ---      ---       LVL=0

      010022B5H   BLOCK     CODE     VOID      LVL=0
      ---         BLOCKEND  ---      ---       LVL=0
LX51 LINKER/LOCATER V4.66.97.0                                                        04/10/2021  13:15:07  PAGE 113



      010022BDH   BLOCK     CODE     ---       LVL=0
      00000007H   SYMBOL    DATA     BYTE      which
      00000005H   SYMBOL    DATA     BYTE      deal
      010022BDH   LINE      CODE     ---       #80
      010022BDH   LINE      CODE     ---       #81
      010022BDH   LINE      CODE     ---       #82
      010022E8H   LINE      CODE     ---       #83
      010022E8H   LINE      CODE     ---       #84
      010022F3H   LINE      CODE     ---       #85
      010022FEH   LINE      CODE     ---       #86
      01002309H   LINE      CODE     ---       #87
      01002314H   LINE      CODE     ---       #88
      0100231FH   LINE      CODE     ---       #89
      0100232AH   LINE      CODE     ---       #90
      01002335H   LINE      CODE     ---       #91
      01002340H   LINE      CODE     ---       #92
      0100234AH   LINE      CODE     ---       #93
      0100234AH   LINE      CODE     ---       #94
      0100234AH   LINE      CODE     ---       #95
      ---         BLOCKEND  ---      ---       LVL=0

      010020EDH   BLOCK     CODE     ---       LVL=0
      010020EDH   LINE      CODE     ---       #111
      010020EDH   LINE      CODE     ---       #112
      010020EDH   LINE      CODE     ---       #113
      010020F3H   LINE      CODE     ---       #114
      010020F7H   LINE      CODE     ---       #115
      010020FBH   LINE      CODE     ---       #116
      010020FFH   LINE      CODE     ---       #117
      01002103H   LINE      CODE     ---       #118
      01002107H   LINE      CODE     ---       #119
      0100210BH   LINE      CODE     ---       #121
      0100210FH   LINE      CODE     ---       #122
      01002113H   LINE      CODE     ---       #123
      01002117H   LINE      CODE     ---       #124
      0100211BH   LINE      CODE     ---       #125
      0100211FH   LINE      CODE     ---       #126
      01002123H   LINE      CODE     ---       #127
      01002127H   LINE      CODE     ---       #129
      0100212BH   LINE      CODE     ---       #130
      0100212FH   LINE      CODE     ---       #131
      01002133H   LINE      CODE     ---       #132
      01002137H   LINE      CODE     ---       #133
      0100213BH   LINE      CODE     ---       #134
      0100213FH   LINE      CODE     ---       #135
      01002143H   LINE      CODE     ---       #137
      01002147H   LINE      CODE     ---       #138
      0100214BH   LINE      CODE     ---       #139
      0100214FH   LINE      CODE     ---       #140
      01002153H   LINE      CODE     ---       #141
      01002157H   LINE      CODE     ---       #142
      0100215BH   LINE      CODE     ---       #143
      0100215FH   LINE      CODE     ---       #145
      01002163H   LINE      CODE     ---       #146
      01002167H   LINE      CODE     ---       #147
      0100216BH   LINE      CODE     ---       #148
      0100216FH   LINE      CODE     ---       #149
      01002173H   LINE      CODE     ---       #150
      01002177H   LINE      CODE     ---       #151
      0100217BH   LINE      CODE     ---       #152
      0100217FH   LINE      CODE     ---       #154
      01002183H   LINE      CODE     ---       #155
      ---         BLOCKEND  ---      ---       LVL=0

LX51 LINKER/LOCATER V4.66.97.0                                                        04/10/2021  13:15:07  PAGE 114


      010032B3H   BLOCK     CODE     ---       LVL=0
      010032B3H   LINE      CODE     ---       #172
      010032B3H   LINE      CODE     ---       #173
      010032B3H   LINE      CODE     ---       #174
      010032BEH   LINE      CODE     ---       #175
      010032C9H   LINE      CODE     ---       #176
      010032D4H   LINE      CODE     ---       #177
      010032DFH   LINE      CODE     ---       #179
      010032E2H   LINE      CODE     ---       #180
      010032E5H   LINE      CODE     ---       #181
      010032E8H   LINE      CODE     ---       #182
      010032EBH   LINE      CODE     ---       #183
      010032EEH   LINE      CODE     ---       #184
      010032F1H   LINE      CODE     ---       #185
      010032F4H   LINE      CODE     ---       #186
      010032F7H   LINE      CODE     ---       #188
      010032FAH   LINE      CODE     ---       #189
      ---         BLOCKEND  ---      ---       LVL=0

      010032FBH   BLOCK     CODE     ---       LVL=0
      010032FBH   LINE      CODE     ---       #201
      010032FBH   LINE      CODE     ---       #202
      010032FBH   LINE      CODE     ---       #203
      01003306H   LINE      CODE     ---       #204
      01003311H   LINE      CODE     ---       #205
      0100331CH   LINE      CODE     ---       #206
      01003327H   LINE      CODE     ---       #208
      0100332AH   LINE      CODE     ---       #209
      0100332DH   LINE      CODE     ---       #210
      01003330H   LINE      CODE     ---       #211
      01003333H   LINE      CODE     ---       #212
      01003336H   LINE      CODE     ---       #213
      01003339H   LINE      CODE     ---       #214
      0100333CH   LINE      CODE     ---       #215
      0100333FH   LINE      CODE     ---       #217
      01003342H   LINE      CODE     ---       #219
      ---         BLOCKEND  ---      ---       LVL=0

      01002AF6H   BLOCK     CODE     ---       LVL=0
      00000007H   SYMBOL    DATA     BYTE      deal
      00000005H   SYMBOL    DATA     BYTE      num
      01002AF6H   LINE      CODE     ---       #236
      01002AF6H   LINE      CODE     ---       #237
      01002AF6H   LINE      CODE     ---       #238
      01002AFBH   LINE      CODE     ---       #239
      01002AFBH   LINE      CODE     ---       #240
      01002B07H   LINE      CODE     ---       #241
      01002B13H   LINE      CODE     ---       #242
      01002B1FH   LINE      CODE     ---       #243
      01002B2BH   LINE      CODE     ---       #244
      01002B37H   LINE      CODE     ---       #245
      01002B43H   LINE      CODE     ---       #246
      01002B4BH   LINE      CODE     ---       #249
      01002B4BH   LINE      CODE     ---       #250
      01002B4EH   LINE      CODE     ---       #251
      01002B51H   LINE      CODE     ---       #252
      01002B54H   LINE      CODE     ---       #253
      01002B57H   LINE      CODE     ---       #254
      01002B5AH   LINE      CODE     ---       #255
      01002B5DH   LINE      CODE     ---       #256
      01002B60H   LINE      CODE     ---       #257
      01002B60H   LINE      CODE     ---       #258
      ---         BLOCKEND  ---      ---       LVL=0

      01002B61H   BLOCK     CODE     ---       LVL=0
LX51 LINKER/LOCATER V4.66.97.0                                                        04/10/2021  13:15:07  PAGE 115


      00000007H   SYMBOL    DATA     BYTE      deal
      00000005H   SYMBOL    DATA     BYTE      num
      01002B61H   LINE      CODE     ---       #269
      01002B61H   LINE      CODE     ---       #270
      01002B61H   LINE      CODE     ---       #271
      01002B66H   LINE      CODE     ---       #272
      01002B66H   LINE      CODE     ---       #273
      01002B72H   LINE      CODE     ---       #274
      01002B7EH   LINE      CODE     ---       #275
      01002B8AH   LINE      CODE     ---       #276
      01002B96H   LINE      CODE     ---       #277
      01002BA2H   LINE      CODE     ---       #278
      01002BAEH   LINE      CODE     ---       #279
      01002BB6H   LINE      CODE     ---       #282
      01002BB6H   LINE      CODE     ---       #283
      01002BB9H   LINE      CODE     ---       #284
      01002BBCH   LINE      CODE     ---       #285
      01002BBFH   LINE      CODE     ---       #286
      01002BC2H   LINE      CODE     ---       #287
      01002BC5H   LINE      CODE     ---       #288
      01002BC8H   LINE      CODE     ---       #289
      01002BCBH   LINE      CODE     ---       #290
      01002BCBH   LINE      CODE     ---       #291
      ---         BLOCKEND  ---      ---       LVL=0

      01002BCCH   BLOCK     CODE     ---       LVL=0
      00000007H   SYMBOL    DATA     BYTE      deal
      00000005H   SYMBOL    DATA     BYTE      num
      01002BCCH   LINE      CODE     ---       #302
      01002BCCH   LINE      CODE     ---       #303
      01002BCCH   LINE      CODE     ---       #304
      01002BD1H   LINE      CODE     ---       #305
      01002BD1H   LINE      CODE     ---       #306
      01002BDDH   LINE      CODE     ---       #307
      01002BE9H   LINE      CODE     ---       #308
      01002BF5H   LINE      CODE     ---       #309
      01002C01H   LINE      CODE     ---       #310
      01002C0DH   LINE      CODE     ---       #311
      01002C19H   LINE      CODE     ---       #312
      01002C21H   LINE      CODE     ---       #315
      01002C21H   LINE      CODE     ---       #316
      01002C24H   LINE      CODE     ---       #317
      01002C27H   LINE      CODE     ---       #318
      01002C2AH   LINE      CODE     ---       #319
      01002C2DH   LINE      CODE     ---       #320
      01002C30H   LINE      CODE     ---       #321
      01002C33H   LINE      CODE     ---       #322
      01002C36H   LINE      CODE     ---       #323
      01002C36H   LINE      CODE     ---       #324
      ---         BLOCKEND  ---      ---       LVL=0

      01002C37H   BLOCK     CODE     ---       LVL=0
      00000007H   SYMBOL    DATA     BYTE      deal
      00000005H   SYMBOL    DATA     BYTE      num
      01002C37H   LINE      CODE     ---       #335
      01002C37H   LINE      CODE     ---       #336
      01002C37H   LINE      CODE     ---       #337
      01002C3CH   LINE      CODE     ---       #338
      01002C3CH   LINE      CODE     ---       #339
      01002C48H   LINE      CODE     ---       #340
      01002C54H   LINE      CODE     ---       #341
      01002C60H   LINE      CODE     ---       #342
      01002C6CH   LINE      CODE     ---       #343
      01002C78H   LINE      CODE     ---       #344
      01002C84H   LINE      CODE     ---       #345
LX51 LINKER/LOCATER V4.66.97.0                                                        04/10/2021  13:15:07  PAGE 116


      01002C8CH   LINE      CODE     ---       #348
      01002C8CH   LINE      CODE     ---       #349
      01002C8FH   LINE      CODE     ---       #350
      01002C92H   LINE      CODE     ---       #351
      01002C95H   LINE      CODE     ---       #352
      01002C98H   LINE      CODE     ---       #353
      01002C9BH   LINE      CODE     ---       #354
      01002C9EH   LINE      CODE     ---       #355
      01002CA1H   LINE      CODE     ---       #356
      01002CA1H   LINE      CODE     ---       #357
      ---         BLOCKEND  ---      ---       LVL=0

      010029A2H   BLOCK     CODE     ---       LVL=0
      010029A2H   LINE      CODE     ---       #368
      010029A2H   LINE      CODE     ---       #369
      010029A2H   LINE      CODE     ---       #370
      010029B6H   LINE      CODE     ---       #371
      010029DBH   LINE      CODE     ---       #372
      01002A00H   LINE      CODE     ---       #373
      ---         BLOCKEND  ---      ---       LVL=0

      010031CAH   BLOCK     CODE     ---       LVL=0
      010031CAH   BLOCK     CODE     NEAR LAB  LVL=1
      00000007H   SYMBOL    DATA     BYTE      temp
      ---         BLOCKEND  ---      ---       LVL=1
      010031CAH   LINE      CODE     ---       #386
      010031CAH   LINE      CODE     ---       #387
      010031CAH   LINE      CODE     ---       #390
      010031D1H   LINE      CODE     ---       #392
      010031DAH   LINE      CODE     ---       #393
      010031E6H   LINE      CODE     ---       #394
      010031F7H   LINE      CODE     ---       #396
      01003200H   LINE      CODE     ---       #397
      0100320CH   LINE      CODE     ---       #398
      ---         BLOCKEND  ---      ---       LVL=0

      010019C9H   BLOCK     CODE     ---       LVL=0
      00000007H   SYMBOL    DATA     BYTE      time_from
      010019C9H   BLOCK     CODE     NEAR LAB  LVL=1
      00000006H   SYMBOL    DATA     BYTE      hour_temp
      02000000H   SYMBOL    XDATA    BYTE      minute_temp
      02000001H   SYMBOL    XDATA    BYTE      hour_temp_temp
      00000003H   SYMBOL    DATA     BYTE      temp
      02000305H   SYMBOL    XDATA    BYTE      pm
      02000306H   SYMBOL    XDATA    BYTE      am
      ---         BLOCKEND  ---      ---       LVL=1
      010019C9H   LINE      CODE     ---       #411
      010019C9H   LINE      CODE     ---       #412
      010019C9H   LINE      CODE     ---       #413
      010019CBH   LINE      CODE     ---       #414
      010019CFH   LINE      CODE     ---       #415
      010019D1H   LINE      CODE     ---       #417
      010019D2H   LINE      CODE     ---       #420
      010019DDH   LINE      CODE     ---       #421
      010019DDH   LINE      CODE     ---       #422
      010019E0H   LINE      CODE     ---       #423
      010019E0H   LINE      CODE     ---       #424
      010019E2H   LINE      CODE     ---       #425
      010019E5H   LINE      CODE     ---       #426
      010019E5H   LINE      CODE     ---       #427
      010019E7H   LINE      CODE     ---       #428
      010019ECH   LINE      CODE     ---       #429
      010019F2H   LINE      CODE     ---       #430
      010019F2H   LINE      CODE     ---       #431
      010019F2H   LINE      CODE     ---       #433
LX51 LINKER/LOCATER V4.66.97.0                                                        04/10/2021  13:15:07  PAGE 117


      010019F8H   LINE      CODE     ---       #434
      010019F8H   LINE      CODE     ---       #435
      010019FDH   LINE      CODE     ---       #436
      01001A03H   LINE      CODE     ---       #437
      01001A08H   LINE      CODE     ---       #438
      01001A0AH   LINE      CODE     ---       #440
      01001A0AH   LINE      CODE     ---       #441
      01001A1EH   LINE      CODE     ---       #442
      01001A1EH   LINE      CODE     ---       #443
      01001A23H   LINE      CODE     ---       #444
      01001A26H   LINE      CODE     ---       #445
      01001A2BH   LINE      CODE     ---       #446
      01001A2DH   LINE      CODE     ---       #448
      01001A2DH   LINE      CODE     ---       #449
      01001A33H   LINE      CODE     ---       #450
      01001A36H   LINE      CODE     ---       #451
      01001A3DH   LINE      CODE     ---       #452
      01001A3DH   LINE      CODE     ---       #453
      01001A47H   LINE      CODE     ---       #454
      01001A51H   LINE      CODE     ---       #455
      01001A5AH   LINE      CODE     ---       #456
      01001A5AH   LINE      CODE     ---       #457
      01001A63H   LINE      CODE     ---       #458
      01001A6DH   LINE      CODE     ---       #459
      01001A7EH   LINE      CODE     ---       #461
      01001A8EH   LINE      CODE     ---       #462
      ---         BLOCKEND  ---      ---       LVL=0

      01003856H   BLOCK     CODE     ---       LVL=0
      01003856H   LINE      CODE     ---       #476
      01003856H   LINE      CODE     ---       #477
      01003856H   LINE      CODE     ---       #478
      0100385CH   LINE      CODE     ---       #479
      0100385CH   LINE      CODE     ---       #480
      01003861H   LINE      CODE     ---       #481
      01003863H   LINE      CODE     ---       #482
      01003865H   LINE      CODE     ---       #484
      01003865H   LINE      CODE     ---       #485
      01003868H   LINE      CODE     ---       #486
      01003871H   LINE      CODE     ---       #487
      01003871H   LINE      CODE     ---       #488
      0100387AH   LINE      CODE     ---       #489
      ---         BLOCKEND  ---      ---       LVL=0

      0100321DH   BLOCK     CODE     ---       LVL=0
      0100321DH   LINE      CODE     ---       #502
      0100321DH   LINE      CODE     ---       #503
      0100321DH   LINE      CODE     ---       #504
      01003226H   LINE      CODE     ---       #506
      01003245H   LINE      CODE     ---       #507
      01003245H   LINE      CODE     ---       #508
      01003245H   LINE      CODE     ---       #509
      01003248H   LINE      CODE     ---       #510
      0100324AH   LINE      CODE     ---       #511
      0100324CH   LINE      CODE     ---       #512
      0100324CH   LINE      CODE     ---       #513
      0100324FH   LINE      CODE     ---       #514
      01003251H   LINE      CODE     ---       #515
      01003253H   LINE      CODE     ---       #516
      01003253H   LINE      CODE     ---       #517
      01003256H   LINE      CODE     ---       #518
      01003258H   LINE      CODE     ---       #519
      0100325AH   LINE      CODE     ---       #520
      0100325AH   LINE      CODE     ---       #521
      0100325FH   LINE      CODE     ---       #522
LX51 LINKER/LOCATER V4.66.97.0                                                        04/10/2021  13:15:07  PAGE 118


      01003268H   LINE      CODE     ---       #523
      01003268H   LINE      CODE     ---       #524
      01003268H   LINE      CODE     ---       #525
      01003268H   LINE      CODE     ---       #526
      ---         BLOCKEND  ---      ---       LVL=0

      01002DD8H   BLOCK     CODE     ---       LVL=0
      01002DD8H   LINE      CODE     ---       #537
      01002DD8H   LINE      CODE     ---       #538
      01002DD8H   LINE      CODE     ---       #539
      01002DDDH   LINE      CODE     ---       #540
      01002DDDH   LINE      CODE     ---       #541
      01002DE0H   LINE      CODE     ---       #543
      01002DF0H   LINE      CODE     ---       #544
      01002DF0H   LINE      CODE     ---       #545
      01002DF9H   LINE      CODE     ---       #546
      01002DF9H   LINE      CODE     ---       #547
      01002DFDH   LINE      CODE     ---       #548
      01002DFFH   LINE      CODE     ---       #550
      01002DFFH   LINE      CODE     ---       #551
      01002E03H   LINE      CODE     ---       #552
      01002E03H   LINE      CODE     ---       #553
      01002E05H   LINE      CODE     ---       #555
      01002E05H   LINE      CODE     ---       #556
      01002E0FH   LINE      CODE     ---       #557
      01002E18H   LINE      CODE     ---       #558
      01002E18H   LINE      CODE     ---       #560
      01002E1EH   LINE      CODE     ---       #561
      01002E1EH   LINE      CODE     ---       #562
      01002E30H   LINE      CODE     ---       #563
      01002E32H   LINE      CODE     ---       #565
      01002E32H   LINE      CODE     ---       #566
      01002E39H   LINE      CODE     ---       #567
      01002E39H   LINE      CODE     ---       #568
      ---         BLOCKEND  ---      ---       LVL=0

      010027ABH   BLOCK     CODE     ---       LVL=0
      010027ABH   LINE      CODE     ---       #582
      010027ABH   LINE      CODE     ---       #583
      010027ABH   LINE      CODE     ---       #584
      010027B5H   LINE      CODE     ---       #585
      010027B5H   LINE      CODE     ---       #586
      010027CCH   LINE      CODE     ---       #587
      010027CCH   LINE      CODE     ---       #588
      010027CCH   LINE      CODE     ---       #589
      010027CCH   LINE      CODE     ---       #590
      010027CCH   LINE      CODE     ---       #591
      010027CEH   LINE      CODE     ---       #592
      010027CEH   LINE      CODE     ---       #593
      010027CEH   LINE      CODE     ---       #594
      010027CEH   LINE      CODE     ---       #595
      010027D0H   LINE      CODE     ---       #596
      010027D0H   LINE      CODE     ---       #597
      010027D0H   LINE      CODE     ---       #598
      010027D7H   LINE      CODE     ---       #599
      010027DFH   LINE      CODE     ---       #600
      010027DFH   LINE      CODE     ---       #601
      010027DFH   LINE      CODE     ---       #602
      010027E1H   LINE      CODE     ---       #603
      010027E1H   LINE      CODE     ---       #604
      010027E8H   LINE      CODE     ---       #605
      010027EDH   LINE      CODE     ---       #606
      010027EFH   LINE      CODE     ---       #607
      010027EFH   LINE      CODE     ---       #608
      010027F7H   LINE      CODE     ---       #609
LX51 LINKER/LOCATER V4.66.97.0                                                        04/10/2021  13:15:07  PAGE 119


      010027FFH   LINE      CODE     ---       #610
      010027FFH   LINE      CODE     ---       #611
      010027FFH   LINE      CODE     ---       #612
      010027FFH   LINE      CODE     ---       #614
      010027FFH   LINE      CODE     ---       #615
      0100280CH   LINE      CODE     ---       #616
      0100280CH   LINE      CODE     ---       #617
      0100280CH   LINE      CODE     ---       #618
      0100280FH   LINE      CODE     ---       #619
      01002814H   LINE      CODE     ---       #620
      01002814H   LINE      CODE     ---       #621
      0100281CH   LINE      CODE     ---       #622
      0100281CH   LINE      CODE     ---       #623
      0100281FH   LINE      CODE     ---       #624
      0100281FH   LINE      CODE     ---       #625
      01002827H   LINE      CODE     ---       #626
      01002827H   LINE      CODE     ---       #627
      0100282AH   LINE      CODE     ---       #628
      0100282AH   LINE      CODE     ---       #630
      0100282AH   LINE      CODE     ---       #631
      0100282DH   LINE      CODE     ---       #632
      0100282DH   LINE      CODE     ---       #633
      0100282DH   LINE      CODE     ---       #634
      ---         BLOCKEND  ---      ---       LVL=0

      01002614H   BLOCK     CODE     ---       LVL=0
      01002614H   LINE      CODE     ---       #647
      01002614H   LINE      CODE     ---       #648
      01002614H   LINE      CODE     ---       #649
      0100261EH   LINE      CODE     ---       #650
      0100261EH   LINE      CODE     ---       #651
      0100262DH   LINE      CODE     ---       #652
      0100262DH   LINE      CODE     ---       #653
      0100262DH   LINE      CODE     ---       #654
      01002634H   LINE      CODE     ---       #655
      01002639H   LINE      CODE     ---       #656
      0100263BH   LINE      CODE     ---       #657
      0100263BH   LINE      CODE     ---       #658
      01002643H   LINE      CODE     ---       #659
      01002648H   LINE      CODE     ---       #660
      0100264AH   LINE      CODE     ---       #661
      0100264AH   LINE      CODE     ---       #662
      01002651H   LINE      CODE     ---       #663
      01002659H   LINE      CODE     ---       #664
      01002661H   LINE      CODE     ---       #665
      01002663H   LINE      CODE     ---       #670
      01002663H   LINE      CODE     ---       #671
      01002663H   LINE      CODE     ---       #672
      01002663H   LINE      CODE     ---       #674
      01002663H   LINE      CODE     ---       #675
      01002670H   LINE      CODE     ---       #676
      01002670H   LINE      CODE     ---       #677
      01002670H   LINE      CODE     ---       #678
      01002673H   LINE      CODE     ---       #683
      0100267CH   LINE      CODE     ---       #684
      0100267EH   LINE      CODE     ---       #685
      01002686H   LINE      CODE     ---       #686
      01002686H   LINE      CODE     ---       #687
      01002689H   LINE      CODE     ---       #688
      01002689H   LINE      CODE     ---       #693
      01002689H   LINE      CODE     ---       #695
      01002692H   LINE      CODE     ---       #696
      01002692H   LINE      CODE     ---       #697
      01002696H   LINE      CODE     ---       #698
      01002698H   LINE      CODE     ---       #701
LX51 LINKER/LOCATER V4.66.97.0                                                        04/10/2021  13:15:07  PAGE 120


      01002698H   LINE      CODE     ---       #702
      0100269FH   LINE      CODE     ---       #703
      0100269FH   LINE      CODE     ---       #705
      ---         BLOCKEND  ---      ---       LVL=0

      01000026H   BLOCK     CODE     ---       LVL=0
      01000026H   BLOCK     CODE     NEAR LAB  LVL=1
      02000000H   SYMBOL    XDATA    BYTE      temp
      ---         BLOCKEND  ---      ---       LVL=1
      01000026H   LINE      CODE     ---       #717
      01000026H   LINE      CODE     ---       #718
      01000026H   LINE      CODE     ---       #719
      0100002BH   LINE      CODE     ---       #721
      01000035H   LINE      CODE     ---       #722
      01000035H   LINE      CODE     ---       #723
      0100003CH   LINE      CODE     ---       #724
      0100003FH   LINE      CODE     ---       #725
      01000041H   LINE      CODE     ---       #727
      01000041H   LINE      CODE     ---       #728
      0100004DH   LINE      CODE     ---       #729
      01000059H   LINE      CODE     ---       #730
      0100006AH   LINE      CODE     ---       #731
      0100006AH   LINE      CODE     ---       #732
      ---         BLOCKEND  ---      ---       LVL=0

      01002726H   BLOCK     CODE     ---       LVL=0
      01002726H   LINE      CODE     ---       #744
      01002726H   LINE      CODE     ---       #745
      01002726H   LINE      CODE     ---       #746
      01002734H   LINE      CODE     ---       #747
      01002734H   LINE      CODE     ---       #748
      0100273DH   LINE      CODE     ---       #749
      01002746H   LINE      CODE     ---       #750
      01002748H   LINE      CODE     ---       #751
      01002750H   LINE      CODE     ---       #752
      01002750H   LINE      CODE     ---       #753
      01002758H   LINE      CODE     ---       #754
      01002758H   LINE      CODE     ---       #755
      0100275BH   LINE      CODE     ---       #756
      01002765H   LINE      CODE     ---       #757
      01002765H   LINE      CODE     ---       #760
      0100276DH   LINE      CODE     ---       #761
      0100276DH   LINE      CODE     ---       #762
      01002773H   LINE      CODE     ---       #763
      01002773H   LINE      CODE     ---       #764
      01002787H   LINE      CODE     ---       #765
      01002787H   LINE      CODE     ---       #767
      0100278DH   LINE      CODE     ---       #768
      0100278DH   LINE      CODE     ---       #769
      01002790H   LINE      CODE     ---       #770
      01002790H   LINE      CODE     ---       #773
      01002796H   LINE      CODE     ---       #774
      01002796H   LINE      CODE     ---       #775
      01002799H   LINE      CODE     ---       #776
      01002799H   LINE      CODE     ---       #778
      0100279FH   LINE      CODE     ---       #779
      0100279FH   LINE      CODE     ---       #780
      010027A7H   LINE      CODE     ---       #781
      010027A7H   LINE      CODE     ---       #782
      010027AAH   LINE      CODE     ---       #783
      010027AAH   LINE      CODE     ---       #784
      010027AAH   LINE      CODE     ---       #785
      010027AAH   LINE      CODE     ---       #786
      ---         BLOCKEND  ---      ---       LVL=0

LX51 LINKER/LOCATER V4.66.97.0                                                        04/10/2021  13:15:07  PAGE 121


      01003A35H   BLOCK     CODE     ---       LVL=0
      01003A35H   LINE      CODE     ---       #796
      01003A35H   LINE      CODE     ---       #797
      01003A35H   LINE      CODE     ---       #798
      01003A3FH   LINE      CODE     ---       #799
      01003A3FH   LINE      CODE     ---       #801
      01003A4AH   LINE      CODE     ---       #806
      01003A4DH   LINE      CODE     ---       #807
      01003A50H   LINE      CODE     ---       #808
      01003A55H   LINE      CODE     ---       #809
      01003A55H   LINE      CODE     ---       #810
      ---         BLOCKEND  ---      ---       LVL=0

      01003C2AH   BLOCK     CODE     ---       LVL=0
      01003C2AH   LINE      CODE     ---       #813
      01003C2AH   LINE      CODE     ---       #814
      01003C2AH   LINE      CODE     ---       #815
      ---         BLOCKEND  ---      ---       LVL=0

      01003412H   BLOCK     CODE     ---       LVL=0
      01003412H   LINE      CODE     ---       #824
      01003412H   LINE      CODE     ---       #825
      01003412H   LINE      CODE     ---       #826
      01003418H   LINE      CODE     ---       #827
      01003418H   LINE      CODE     ---       #828
      01003440H   LINE      CODE     ---       #829
      01003440H   LINE      CODE     ---       #830
      01003443H   LINE      CODE     ---       #831
      01003446H   LINE      CODE     ---       #832
      01003449H   LINE      CODE     ---       #833
      0100344CH   LINE      CODE     ---       #834
      0100344FH   LINE      CODE     ---       #835
      01003452H   LINE      CODE     ---       #836
      01003455H   LINE      CODE     ---       #837
      01003455H   LINE      CODE     ---       #838
      01003455H   LINE      CODE     ---       #839
      01003455H   LINE      CODE     ---       #840
      ---         BLOCKEND  ---      ---       LVL=0

      ---         MODULE    ---      ---       KEY
      020001E1H   PUBLIC    XDATA    BYTE      ucKeyCode
      0100359AH   PUBLIC    CODE     ---       bsp_KeyScan10ms
      01003828H   PUBLIC    CODE     ---       bsp_GetKey
      01003C4AH   PUBLIC    CODE     ---       close_key_ad
      01003BD5H   PUBLIC    CODE     ---       key_ad_init
      000000E3H   SFRSYM    DATA     BYTE      LXDAT
      000000C4H   SFRSYM    DATA     BYTE      TKCHS
      00000080H   SFRSYM    DATA     BYTE      P0
      000000C1H   SFRSYM    DATA     BYTE      TKCON
      00000090H   SFRSYM    DATA     BYTE      P1
      000000A0H   SFRSYM    DATA     BYTE      P2
      000000C0H.6 SFRSYM    DATA     BIT       MOTOR_SWITCH_ADC_GPIO
      000000C0H.0 SFRSYM    DATA     BIT       is_busy
      000000B0H   SFRSYM    DATA     BYTE      P3
      000000C0H.2 SFRSYM    DATA     BIT       DC_5V_GPIO
      000000D0H.6 SFRSYM    DATA     BIT       AC
      000000C0H   SFRSYM    DATA     BYTE      P4
      000000D8H   SFRSYM    DATA     BYTE      P5
      000000A5H   SFRSYM    DATA     BYTE      SPCON
      000000A8H.7 SFRSYM    DATA     BIT       EA
      000000E1H   SFRSYM    DATA     BYTE      LXCON
      000000A9H   SFRSYM    DATA     BYTE      P6
      000000C8H.0 SFRSYM    DATA     BIT       T2P0
      000000D9H   SFRSYM    DATA     BYTE      P7
      000000C8H.1 SFRSYM    DATA     BIT       T2P1
LX51 LINKER/LOCATER V4.66.97.0                                                        04/10/2021  13:15:07  PAGE 122


      000000F1H   SFRSYM    DATA     BYTE      RTCON
      000000C8H.4 SFRSYM    DATA     BIT       T2R0
      000000DAH   SFRSYM    DATA     BYTE      PWMEN
      000000CFH   SFRSYM    DATA     BYTE      TKMSH
      00000086H   SFRSYM    DATA     BYTE      PWCON
      000000C8H.5 SFRSYM    DATA     BIT       T2R1
      000000C0H.2 SFRSYM    DATA     BIT       dc_5v_in
      000000CEH   SFRSYM    DATA     BYTE      TKMSL
      000000A7H   SFRSYM    DATA     BYTE      SPSTA
      00000083H   SFRSYM    DATA     BYTE      DP0H
      000000A8H   SFRSYM    DATA     BYTE      IE
      00000085H   SFRSYM    DATA     BYTE      DP1H
      000000E9H   SFRSYM    DATA     BYTE      RTCSS
      00000082H   SFRSYM    DATA     BYTE      DP0L
      000000C0H.1 SFRSYM    DATA     BIT       BAT_ADC_GPIO
      000000CBH   SFRSYM    DATA     BYTE      T2CH
      000000B3H   SFRSYM    DATA     BYTE      I2CADM
      00000084H   SFRSYM    DATA     BYTE      DP1L
      000000C8H.3 SFRSYM    DATA     BIT       T2IE
      000000C3H   SFRSYM    DATA     BYTE      TKMTS
      000000C0H.7 SFRSYM    DATA     BIT       MODE_SWITCH_ADC_GPIO
      000000CAH   SFRSYM    DATA     BYTE      T2CL
      000000B2H   SFRSYM    DATA     BYTE      I2CADR
      000000B4H   SFRSYM    DATA     BYTE      I2CCCR
      000000B8H   SFRSYM    DATA     BYTE      IP
      000000B7H   SFRSYM    DATA     BYTE      I2CFLG
      000000B5H   SFRSYM    DATA     BYTE      I2CDAT
      000000EDH   SFRSYM    DATA     BYTE      RTMSS
      000000D0H.7 SFRSYM    DATA     BIT       CY
      000000BBH   SFRSYM    DATA     BYTE      ADCFGH
      000000DCH   SFRSYM    DATA     BYTE      PWMCMAX
      000000B1H   SFRSYM    DATA     BYTE      I2CCON
      000000D1H   SFRSYM    DATA     BYTE      PWMDIVH
      000000BAH   SFRSYM    DATA     BYTE      ADCFGL
      00000081H   SFRSYM    DATA     BYTE      SP
      000000F9H   SFRSYM    DATA     BYTE      EPIE
      000000D0H.2 SFRSYM    DATA     BIT       OV
      000000FAH   SFRSYM    DATA     BYTE      EPIF
      000000DFH   SFRSYM    DATA     BYTE      PWMDIVL
      000000B6H   SFRSYM    DATA     BYTE      I2CSTA
      000000E8H   SFRSYM    DATA     BYTE      EXIE
      000000D3H   SFRSYM    DATA     BYTE      PWMDUTH
      000000C7H   SFRSYM    DATA     BYTE      TKIF
      0000008FH   SFRSYM    DATA     BYTE      IT0CON
      00000080H.0 SFRSYM    DATA     BIT       P00
      000000ECH   SFRSYM    DATA     BYTE      RTAH
      000000D2H   SFRSYM    DATA     BYTE      PWMDUTL
      0000008EH   SFRSYM    DATA     BYTE      IT1CON
      00000090H.0 SFRSYM    DATA     BIT       P10
      00000080H.1 SFRSYM    DATA     BIT       P01
      0000009DH   SFRSYM    DATA     BYTE      S1RELH
      00000087H   SFRSYM    DATA     BYTE      PCON
      000000A0H.0 SFRSYM    DATA     BIT       P20
      00000090H.1 SFRSYM    DATA     BIT       P11
      00000080H.2 SFRSYM    DATA     BIT       P02
      000000E8H.0 SFRSYM    DATA     BIT       INT2EN
      000000F4H   SFRSYM    DATA     BYTE      RTCH
      000000A4H   SFRSYM    DATA     BYTE      S2RELH
      000000B0H.2 SFRSYM    DATA     BIT       LED_SW_MOD_GPIO
      000000B0H.0 SFRSYM    DATA     BIT       P30
      000000A0H.1 SFRSYM    DATA     BIT       P21
      00000090H.2 SFRSYM    DATA     BIT       P12
      00000080H.3 SFRSYM    DATA     BIT       P03
      000000E8H.1 SFRSYM    DATA     BIT       INT3EN
      000000C0H.0 SFRSYM    DATA     BIT       P40
LX51 LINKER/LOCATER V4.66.97.0                                                        04/10/2021  13:15:07  PAGE 123


      000000B0H.1 SFRSYM    DATA     BIT       P31
      000000A0H.2 SFRSYM    DATA     BIT       P22
      00000090H.3 SFRSYM    DATA     BIT       P13
      00000080H.4 SFRSYM    DATA     BIT       P04
      000000E8H.2 SFRSYM    DATA     BIT       INT4EN
      000000D8H.0 SFRSYM    DATA     BIT       P50
      000000C0H.1 SFRSYM    DATA     BIT       P41
      000000B0H.2 SFRSYM    DATA     BIT       P32
      000000A0H.3 SFRSYM    DATA     BIT       P23
      00000090H.4 SFRSYM    DATA     BIT       P14
      00000080H.5 SFRSYM    DATA     BIT       P05
      000000E8H.3 SFRSYM    DATA     BIT       INT5EN
      000000EBH   SFRSYM    DATA     BYTE      RTAM
      0000009CH   SFRSYM    DATA     BYTE      S1RELL
      00000089H   SFRSYM    DATA     BYTE      TMOD
      00000088H   SFRSYM    DATA     BYTE      TCON
      000000D8H.1 SFRSYM    DATA     BIT       P51
      000000C0H.2 SFRSYM    DATA     BIT       P42
      000000B0H.3 SFRSYM    DATA     BIT       P33
      000000A0H.4 SFRSYM    DATA     BIT       P24
      00000090H.5 SFRSYM    DATA     BIT       P15
      00000080H.6 SFRSYM    DATA     BIT       P06
      000000E8H.4 SFRSYM    DATA     BIT       INT6EN
      000000A3H   SFRSYM    DATA     BYTE      S2RELL
      000000D8H.2 SFRSYM    DATA     BIT       P52
      000000C0H.3 SFRSYM    DATA     BIT       P43
      000000B0H.4 SFRSYM    DATA     BIT       P34
      000000A0H.5 SFRSYM    DATA     BIT       P25
      00000090H.6 SFRSYM    DATA     BIT       P16
      00000080H.7 SFRSYM    DATA     BIT       P07
      000000E8H.5 SFRSYM    DATA     BIT       INT7EN
      000000C8H.2 SFRSYM    DATA     BIT       UCKS
      000000F8H   SFRSYM    DATA     BYTE      EXIP
      000000F3H   SFRSYM    DATA     BYTE      RTCM
      000000D8H.3 SFRSYM    DATA     BIT       P53
      000000C0H.4 SFRSYM    DATA     BIT       P44
      000000B0H.5 SFRSYM    DATA     BIT       P35
      000000A0H.6 SFRSYM    DATA     BIT       P26
      00000090H.7 SFRSYM    DATA     BIT       P17
      000000E8H.6 SFRSYM    DATA     BIT       INT8EN
      000000D8H.4 SFRSYM    DATA     BIT       P54
      000000C0H.5 SFRSYM    DATA     BIT       P45
      000000B0H.6 SFRSYM    DATA     BIT       P36
      000000A0H.7 SFRSYM    DATA     BIT       P27
      000000E8H.7 SFRSYM    DATA     BIT       INT9EN
      000000D8H.5 SFRSYM    DATA     BIT       P55
      000000C0H.6 SFRSYM    DATA     BIT       P46
      000000B0H.7 SFRSYM    DATA     BIT       P37
      000000D8H.6 SFRSYM    DATA     BIT       P56
      000000C0H.7 SFRSYM    DATA     BIT       P47
      000000EAH   SFRSYM    DATA     BYTE      RTAS
      000000AFH   SFRSYM    DATA     BYTE      HVTH
      00000095H   SFRSYM    DATA     BYTE      RCTAGH
      000000D8H.7 SFRSYM    DATA     BIT       P57
      000000F2H   SFRSYM    DATA     BYTE      RTCS
      00000088H.1 SFRSYM    DATA     BIT       IE0
      00000088H.3 SFRSYM    DATA     BIT       IE1
      00000094H   SFRSYM    DATA     BYTE      RCTAGL
      000000F0H   SFRSYM    DATA     BYTE      B
      000000E7H   SFRSYM    DATA     BYTE      MDUDAT
      000000C0H.0 SFRSYM    DATA     BIT       busy
      000000DEH   SFRSYM    DATA     BYTE      PWMCFG
      000000D4H   SFRSYM    DATA     BYTE      PWMAIF
      000000E0H   SFRSYM    DATA     BYTE      ACC
      000000D5H   SFRSYM    DATA     BYTE      PWMBIF
LX51 LINKER/LOCATER V4.66.97.0                                                        04/10/2021  13:15:07  PAGE 124


      0000009FH   SFRSYM    DATA     BYTE      RCMSHH
      000000A8H.4 SFRSYM    DATA     BIT       ES0
      000000EFH   SFRSYM    DATA     BYTE      LVDCON
      000000E6H   SFRSYM    DATA     BYTE      MDUCON
      000000D6H   SFRSYM    DATA     BYTE      PWMCIF
      000000A8H.1 SFRSYM    DATA     BIT       ET0
      000000A8H.6 SFRSYM    DATA     BIT       ES1
      000000D7H   SFRSYM    DATA     BYTE      PWMDIF
      000000A8H.3 SFRSYM    DATA     BIT       ET1
      00000088H.5 SFRSYM    DATA     BIT       TF0
      000000FDH   SFRSYM    DATA     BYTE      IDLSTH
      000000AEH   SFRSYM    DATA     BYTE      PLLCON
      000000A8H.5 SFRSYM    DATA     BIT       ET2
      00000098H.0 SFRSYM    DATA     BIT       RI0
      00000088H.7 SFRSYM    DATA     BIT       TF1
      0000009EH   SFRSYM    DATA     BYTE      RCMSHL
      00000097H   SFRSYM    DATA     BYTE      RCMSLH
      000000C8H.7 SFRSYM    DATA     BIT       TF2
      00000098H.2 SFRSYM    DATA     BIT       RB8
      0000008CH   SFRSYM    DATA     BYTE      TH0
      000000A8H.0 SFRSYM    DATA     BIT       EX0
      00000098H.1 SFRSYM    DATA     BIT       TI0
      00000088H.0 SFRSYM    DATA     BIT       IT0
      0000008DH   SFRSYM    DATA     BYTE      TH1
      000000A8H.2 SFRSYM    DATA     BIT       EX1
      00000098H.3 SFRSYM    DATA     BIT       TB8
      00000088H.2 SFRSYM    DATA     BIT       IT1
      000000FCH   SFRSYM    DATA     BYTE      IDLSTL
      000000CDH   SFRSYM    DATA     BYTE      TH2
      000000D0H.0 SFRSYM    DATA     BIT       P
      00000096H   SFRSYM    DATA     BYTE      RCMSLL
      00000098H.7 SFRSYM    DATA     BIT       SM0
      0000008AH   SFRSYM    DATA     BYTE      TL0
      00000098H.6 SFRSYM    DATA     BIT       SM1
      000000E5H   SFRSYM    DATA     BYTE      LXDIVH
      0000008BH   SFRSYM    DATA     BYTE      TL1
      000000D8H.4 SFRSYM    DATA     BIT       BL_CTL
      00000098H.5 SFRSYM    DATA     BIT       SM2
      000000CCH   SFRSYM    DATA     BYTE      TL2
      000000B8H.4 SFRSYM    DATA     BIT       PS0
      000000B8H.1 SFRSYM    DATA     BIT       PT0
      000000B8H.6 SFRSYM    DATA     BIT       PS1
      000000B8H.3 SFRSYM    DATA     BIT       PT1
      000000D0H.3 SFRSYM    DATA     BIT       RS0
      000000E4H   SFRSYM    DATA     BYTE      LXDIVL
      000000BDH   SFRSYM    DATA     BYTE      ADCDH
      000000B8H.5 SFRSYM    DATA     BIT       PT2
      00000088H.4 SFRSYM    DATA     BIT       TR0
      000000D0H.4 SFRSYM    DATA     BIT       RS1
      000000DDH   SFRSYM    DATA     BYTE      PWMCON
      00000088H.6 SFRSYM    DATA     BIT       TR1
      000000ADH   SFRSYM    DATA     BYTE      WDVTHH
      000000C8H.6 SFRSYM    DATA     BIT       TR2
      000000B8H.0 SFRSYM    DATA     BIT       PX0
      000000B8H.2 SFRSYM    DATA     BIT       PX1
      000000BCH   SFRSYM    DATA     BYTE      ADCDL
      000000ACH   SFRSYM    DATA     BYTE      WDVTHL
      000000DBH   SFRSYM    DATA     BYTE      PWMUPD
      000000C0H.5 SFRSYM    DATA     BIT       KEY_AD_GPIO
      00000099H   SFRSYM    DATA     BYTE      S0BUF
      0000009BH   SFRSYM    DATA     BYTE      S1BUF
      000000D8H.4 SFRSYM    DATA     BIT       BL_CTL_GPIO
      000000A2H   SFRSYM    DATA     BYTE      S2BUF
      00000098H   SFRSYM    DATA     BYTE      S0CON
      00000098H.4 SFRSYM    DATA     BIT       REN
LX51 LINKER/LOCATER V4.66.97.0                                                        04/10/2021  13:15:07  PAGE 125


      0000009AH   SFRSYM    DATA     BYTE      S1CON
      000000B9H   SFRSYM    DATA     BYTE      ADCON
      000000A1H   SFRSYM    DATA     BYTE      S2CON
      000000D0H.1 SFRSYM    DATA     BIT       DPS
      000000C9H   SFRSYM    DATA     BYTE      T2MOD
      000000C8H   SFRSYM    DATA     BYTE      T2CON
      000000FFH   SFRSYM    DATA     BYTE      STPSTH
      000000BFH   SFRSYM    DATA     BYTE      CKMIF
      000000FEH   SFRSYM    DATA     BYTE      STPSTL
      000000C2H   SFRSYM    DATA     BYTE      TKCFG
      00000093H   SFRSYM    DATA     BYTE      VCKDH
      000000B0H.3 SFRSYM    DATA     BIT       motor_a
      000000D0H.5 SFRSYM    DATA     BIT       F0
      000000E2H   SFRSYM    DATA     BYTE      LXCFG
      000000ABH   SFRSYM    DATA     BYTE      WDFLG
      00000092H   SFRSYM    DATA     BYTE      VCKDL
      000000B0H.7 SFRSYM    DATA     BIT       motor_b
      000000FBH   SFRSYM    DATA     BYTE      EPCON
      000000F6H   SFRSYM    DATA     BYTE      RTCDH
      000000C6H   SFRSYM    DATA     BYTE      ATKMH
      00000091H   SFRSYM    DATA     BYTE      RCCON
      000000F7H   SFRSYM    DATA     BYTE      INDEX
      000000EEH   SFRSYM    DATA     BYTE      RTCIF
      000000BEH   SFRSYM    DATA     BYTE      CKMON
      000000F5H   SFRSYM    DATA     BYTE      RTCDL
      000000D0H   SFRSYM    DATA     BYTE      PSW
      000000C5H   SFRSYM    DATA     BYTE      ATKML
      000000AAH   SFRSYM    DATA     BYTE      WDCON
      000000A6H   SFRSYM    DATA     BYTE      SPDAT
      01003A56H   SYMBOL    CODE     ---       _bsp_PutKey
      01003613H   SYMBOL    CODE     ---       _IsKeyDownFunc
      0100282EH   SYMBOL    CODE     ---       bsp_InitKeyVar
      020001E2H   SYMBOL    XDATA    WORD      current_key_AD_value
      0100109CH   SYMBOL    CODE     ---       _bsp_DetectKey
      01003A12H   SYMBOL    CODE     ---       _KeyPinActive
      020001E4H   SYMBOL    XDATA    ---       key_AD_value_list
      020001F4H   SYMBOL    XDATA    ---       s_tBtn
      02000234H   SYMBOL    XDATA    ---       s_tKey

      01003BD5H   BLOCK     CODE     ---       LVL=0
      01003BD5H   LINE      CODE     ---       #40
      01003BD5H   LINE      CODE     ---       #41
      01003BD5H   LINE      CODE     ---       #42
      01003BDBH   LINE      CODE     ---       #43
      01003BDEH   LINE      CODE     ---       #45
      01003BE1H   LINE      CODE     ---       #46
      ---         BLOCKEND  ---      ---       LVL=0

      01003C4AH   BLOCK     CODE     ---       LVL=0
      01003C4AH   LINE      CODE     ---       #58
      01003C4AH   LINE      CODE     ---       #59
      01003C4AH   LINE      CODE     ---       #60
      01003C4FH   LINE      CODE     ---       #61
      ---         BLOCKEND  ---      ---       LVL=0

      0100282EH   BLOCK     CODE     ---       LVL=0
      0100282EH   BLOCK     CODE     NEAR LAB  LVL=1
      00000007H   SYMBOL    DATA     BYTE      i
      ---         BLOCKEND  ---      ---       LVL=1
      0100282EH   LINE      CODE     ---       #72
      0100282EH   LINE      CODE     ---       #73
      0100282EH   LINE      CODE     ---       #77
      01002833H   LINE      CODE     ---       #78
      01002835H   LINE      CODE     ---       #81
      01002840H   LINE      CODE     ---       #82
LX51 LINKER/LOCATER V4.66.97.0                                                        04/10/2021  13:15:07  PAGE 126


      01002840H   LINE      CODE     ---       #83
      01002854H   LINE      CODE     ---       #84
      01002866H   LINE      CODE     ---       #85
      01002877H   LINE      CODE     ---       #86
      01002887H   LINE      CODE     ---       #87
      01002898H   LINE      CODE     ---       #88
      010028A8H   LINE      CODE     ---       #89
      010028ABH   LINE      CODE     ---       #90
      ---         BLOCKEND  ---      ---       LVL=0

      01003A12H   BLOCK     CODE     ---       LVL=0
      00000007H   SYMBOL    DATA     BYTE      index
      01003A12H   LINE      CODE     ---       #102
      01003A12H   LINE      CODE     ---       #103
      01003A12H   LINE      CODE     ---       #104
      01003A32H   LINE      CODE     ---       #105
      01003A32H   LINE      CODE     ---       #106
      01003A34H   LINE      CODE     ---       #107
      01003A34H   LINE      CODE     ---       #109
      01003A34H   LINE      CODE     ---       #110
      01003A34H   LINE      CODE     ---       #111
      01003A34H   LINE      CODE     ---       #112
      ---         BLOCKEND  ---      ---       LVL=0

      01003613H   BLOCK     CODE     ---       LVL=0
      00000005H   SYMBOL    DATA     BYTE      _id
      01003615H   BLOCK     CODE     NEAR LAB  LVL=1
      00000002H   SYMBOL    DATA     BYTE      i
      00000004H   SYMBOL    DATA     BYTE      count
      00000003H   SYMBOL    DATA     BYTE      save
      ---         BLOCKEND  ---      ---       LVL=1
      01003613H   LINE      CODE     ---       #124
      01003615H   LINE      CODE     ---       #125
      01003615H   LINE      CODE     ---       #127
      01003617H   LINE      CODE     ---       #128
      01003619H   LINE      CODE     ---       #129
      01003623H   LINE      CODE     ---       #130
      01003623H   LINE      CODE     ---       #131
      0100362FH   LINE      CODE     ---       #132
      0100362FH   LINE      CODE     ---       #133
      01003637H   LINE      CODE     ---       #134
      01003637H   LINE      CODE     ---       #135
      01003638H   LINE      CODE     ---       #136
      0100363AH   LINE      CODE     ---       #137
      0100363AH   LINE      CODE     ---       #138
      01003643H   LINE      CODE     ---       #139
      01003643H   LINE      CODE     ---       #140
      01003646H   LINE      CODE     ---       #141
      01003646H   LINE      CODE     ---       #142
      01003649H   LINE      CODE     ---       #143
      0100364CH   LINE      CODE     ---       #144
      0100364CH   LINE      CODE     ---       #145
      0100364EH   LINE      CODE     ---       #146
      ---         BLOCKEND  ---      ---       LVL=0

      01003828H   BLOCK     CODE     ---       LVL=0
      01003828H   BLOCK     CODE     NEAR LAB  LVL=1
      00000007H   SYMBOL    DATA     BYTE      ret
      ---         BLOCKEND  ---      ---       LVL=1
      01003828H   LINE      CODE     ---       #158
      01003828H   LINE      CODE     ---       #159
      01003828H   LINE      CODE     ---       #162
      01003835H   LINE      CODE     ---       #163
      01003835H   LINE      CODE     ---       #164
      01003838H   LINE      CODE     ---       #165
LX51 LINKER/LOCATER V4.66.97.0                                                        04/10/2021  13:15:07  PAGE 127


      01003838H   LINE      CODE     ---       #167
      01003838H   LINE      CODE     ---       #168
      01003844H   LINE      CODE     ---       #170
      01003853H   LINE      CODE     ---       #171
      01003853H   LINE      CODE     ---       #172
      01003855H   LINE      CODE     ---       #173
      01003855H   LINE      CODE     ---       #174
      01003855H   LINE      CODE     ---       #175
      01003855H   LINE      CODE     ---       #176
      ---         BLOCKEND  ---      ---       LVL=0

      01003A56H   BLOCK     CODE     ---       LVL=0
      00000007H   SYMBOL    DATA     BYTE      _KeyCode
      01003A56H   LINE      CODE     ---       #187
      01003A56H   LINE      CODE     ---       #188
      01003A56H   LINE      CODE     ---       #189
      01003A65H   LINE      CODE     ---       #191
      01003A74H   LINE      CODE     ---       #192
      01003A74H   LINE      CODE     ---       #193
      01003A76H   LINE      CODE     ---       #194
      01003A76H   LINE      CODE     ---       #195
      ---         BLOCKEND  ---      ---       LVL=0

      0100109CH   BLOCK     CODE     ---       LVL=0
      02000001H   SYMBOL    XDATA    BYTE      i
      010010A1H   BLOCK     CODE     NEAR LAB  LVL=1
      02000002H   SYMBOL    XDATA    ---       pBtn
      02000005H   SYMBOL    XDATA    BYTE      save
      ---         BLOCKEND  ---      ---       LVL=1
      0100109CH   LINE      CODE     ---       #207
      010010A1H   LINE      CODE     ---       #208
      010010A1H   LINE      CODE     ---       #211
      010010A6H   LINE      CODE     ---       #212
      010010C0H   LINE      CODE     ---       #214
      010010CEH   LINE      CODE     ---       #215
      010010CEH   LINE      CODE     ---       #217
      010010E8H   LINE      CODE     ---       #218
      010010E8H   LINE      CODE     ---       #219
      010010EDH   LINE      CODE     ---       #220
      010010EDH   LINE      CODE     ---       #222
      010010F8H   LINE      CODE     ---       #223
      010010F8H   LINE      CODE     ---       #224
      010010FDH   LINE      CODE     ---       #225
      010010FDH   LINE      CODE     ---       #227
      010010FDH   LINE      CODE     ---       #228
      01001105H   LINE      CODE     ---       #229
      01001105H   LINE      CODE     ---       #230
      0100110CH   LINE      CODE     ---       #233
      01001119H   LINE      CODE     ---       #234
      01001119H   LINE      CODE     ---       #236
      01001138H   LINE      CODE     ---       #237
      01001138H   LINE      CODE     ---       #238
      01001145H   LINE      CODE     ---       #239
      01001145H   LINE      CODE     ---       #241
      0100115BH   LINE      CODE     ---       #242
      0100115BH   LINE      CODE     ---       #244
      01001165H   LINE      CODE     ---       #245
      01001165H   LINE      CODE     ---       #246
      01001167H   LINE      CODE     ---       #248
      01001167H   LINE      CODE     ---       #249
      0100117AH   LINE      CODE     ---       #250
      0100117AH   LINE      CODE     ---       #251
      01001189H   LINE      CODE     ---       #252
      01001189H   LINE      CODE     ---       #253
      01001190H   LINE      CODE     ---       #255
LX51 LINKER/LOCATER V4.66.97.0                                                        04/10/2021  13:15:07  PAGE 128


      0100119EH   LINE      CODE     ---       #256
      0100119EH   LINE      CODE     ---       #257
      0100119EH   LINE      CODE     ---       #258
      0100119EH   LINE      CODE     ---       #259
      0100119EH   LINE      CODE     ---       #260
      0100119EH   LINE      CODE     ---       #261
      0100119EH   LINE      CODE     ---       #263
      0100119EH   LINE      CODE     ---       #264
      010011B8H   LINE      CODE     ---       #265
      010011B8H   LINE      CODE     ---       #266
      010011BDH   LINE      CODE     ---       #267
      010011BFH   LINE      CODE     ---       #268
      010011C3H   LINE      CODE     ---       #269
      010011C3H   LINE      CODE     ---       #270
      010011C8H   LINE      CODE     ---       #271
      010011CAH   LINE      CODE     ---       #273
      010011CAH   LINE      CODE     ---       #274
      010011D4H   LINE      CODE     ---       #275
      010011D4H   LINE      CODE     ---       #276
      010011DAH   LINE      CODE     ---       #279
      010011F5H   LINE      CODE     ---       #280
      010011F5H   LINE      CODE     ---       #281
      01001204H   LINE      CODE     ---       #282
      0100120EH   LINE      CODE     ---       #283
      01001210H   LINE      CODE     ---       #285
      01001210H   LINE      CODE     ---       #286
      0100121FH   LINE      CODE     ---       #287
      0100122DH   LINE      CODE     ---       #288
      0100122DH   LINE      CODE     ---       #289
      0100122DH   LINE      CODE     ---       #290
      0100122DH   LINE      CODE     ---       #291
      0100123FH   LINE      CODE     ---       #292
      0100123FH   LINE      CODE     ---       #293
      ---         BLOCKEND  ---      ---       LVL=0

      0100359AH   BLOCK     CODE     ---       LVL=0
      0100359AH   BLOCK     CODE     NEAR LAB  LVL=1
      02000000H   SYMBOL    XDATA    BYTE      a
      ---         BLOCKEND  ---      ---       LVL=1
      0100359AH   LINE      CODE     ---       #305
      0100359AH   LINE      CODE     ---       #306
      0100359AH   LINE      CODE     ---       #308
      010035A7H   LINE      CODE     ---       #309
      010035B8H   LINE      CODE     ---       #310
      010035CBH   LINE      CODE     ---       #311
      010035CBH   LINE      CODE     ---       #312
      010035CEH   LINE      CODE     ---       #313
      010035D6H   LINE      CODE     ---       #314
      ---         BLOCKEND  ---      ---       LVL=0

      ---         MODULE    ---      ---       BL
      020002B4H   PUBLIC    XDATA    ---       AD_value_buffer
      020002B0H   PUBLIC    XDATA    WORD      bl_PWM_duty
      020002A5H   PUBLIC    XDATA    BYTE      bl_pwm_mode
      01003B1DH   PUBLIC    CODE     ---       _get_dvalue_u16
      01001FB0H   PUBLIC    CODE     ---       _get_adjust_AD_value
      01003C02H   PUBLIC    CODE     ---       bl_close
      01003883H   PUBLIC    CODE     ---       _bl_brightness_set
      01002A18H   PUBLIC    CODE     ---       bl_init
      01001B73H   PUBLIC    CODE     ---       bl_handler
      000000E3H   SFRSYM    DATA     BYTE      LXDAT
      000000C4H   SFRSYM    DATA     BYTE      TKCHS
      00000080H   SFRSYM    DATA     BYTE      P0
      000000C1H   SFRSYM    DATA     BYTE      TKCON
      00000090H   SFRSYM    DATA     BYTE      P1
LX51 LINKER/LOCATER V4.66.97.0                                                        04/10/2021  13:15:07  PAGE 129


      000000A0H   SFRSYM    DATA     BYTE      P2
      000000C0H.6 SFRSYM    DATA     BIT       MOTOR_SWITCH_ADC_GPIO
      000000C0H.0 SFRSYM    DATA     BIT       is_busy
      000000B0H   SFRSYM    DATA     BYTE      P3
      000000C0H.2 SFRSYM    DATA     BIT       DC_5V_GPIO
      000000D0H.6 SFRSYM    DATA     BIT       AC
      000000C0H   SFRSYM    DATA     BYTE      P4
      000000D8H   SFRSYM    DATA     BYTE      P5
      000000A5H   SFRSYM    DATA     BYTE      SPCON
      000000A8H.7 SFRSYM    DATA     BIT       EA
      000000E1H   SFRSYM    DATA     BYTE      LXCON
      000000A9H   SFRSYM    DATA     BYTE      P6
      000000C8H.0 SFRSYM    DATA     BIT       T2P0
      000000D9H   SFRSYM    DATA     BYTE      P7
      000000C8H.1 SFRSYM    DATA     BIT       T2P1
      000000F1H   SFRSYM    DATA     BYTE      RTCON
      000000C8H.4 SFRSYM    DATA     BIT       T2R0
      000000DAH   SFRSYM    DATA     BYTE      PWMEN
      000000CFH   SFRSYM    DATA     BYTE      TKMSH
      00000086H   SFRSYM    DATA     BYTE      PWCON
      000000C8H.5 SFRSYM    DATA     BIT       T2R1
      000000C0H.2 SFRSYM    DATA     BIT       dc_5v_in
      000000CEH   SFRSYM    DATA     BYTE      TKMSL
      000000A7H   SFRSYM    DATA     BYTE      SPSTA
      00000083H   SFRSYM    DATA     BYTE      DP0H
      000000A8H   SFRSYM    DATA     BYTE      IE
      00000085H   SFRSYM    DATA     BYTE      DP1H
      000000E9H   SFRSYM    DATA     BYTE      RTCSS
      00000082H   SFRSYM    DATA     BYTE      DP0L
      000000C0H.1 SFRSYM    DATA     BIT       BAT_ADC_GPIO
      000000CBH   SFRSYM    DATA     BYTE      T2CH
      000000B3H   SFRSYM    DATA     BYTE      I2CADM
      00000084H   SFRSYM    DATA     BYTE      DP1L
      000000C8H.3 SFRSYM    DATA     BIT       T2IE
      000000C3H   SFRSYM    DATA     BYTE      TKMTS
      000000C0H.7 SFRSYM    DATA     BIT       MODE_SWITCH_ADC_GPIO
      000000CAH   SFRSYM    DATA     BYTE      T2CL
      000000B2H   SFRSYM    DATA     BYTE      I2CADR
      000000B4H   SFRSYM    DATA     BYTE      I2CCCR
      000000B8H   SFRSYM    DATA     BYTE      IP
      000000B7H   SFRSYM    DATA     BYTE      I2CFLG
      000000B5H   SFRSYM    DATA     BYTE      I2CDAT
      000000EDH   SFRSYM    DATA     BYTE      RTMSS
      000000D0H.7 SFRSYM    DATA     BIT       CY
      000000BBH   SFRSYM    DATA     BYTE      ADCFGH
      000000DCH   SFRSYM    DATA     BYTE      PWMCMAX
      000000B1H   SFRSYM    DATA     BYTE      I2CCON
      000000D1H   SFRSYM    DATA     BYTE      PWMDIVH
      000000BAH   SFRSYM    DATA     BYTE      ADCFGL
      00000081H   SFRSYM    DATA     BYTE      SP
      000000F9H   SFRSYM    DATA     BYTE      EPIE
      000000D0H.2 SFRSYM    DATA     BIT       OV
      000000FAH   SFRSYM    DATA     BYTE      EPIF
      000000DFH   SFRSYM    DATA     BYTE      PWMDIVL
      000000B6H   SFRSYM    DATA     BYTE      I2CSTA
      000000E8H   SFRSYM    DATA     BYTE      EXIE
      000000D3H   SFRSYM    DATA     BYTE      PWMDUTH
      000000C7H   SFRSYM    DATA     BYTE      TKIF
      0000008FH   SFRSYM    DATA     BYTE      IT0CON
      00000080H.0 SFRSYM    DATA     BIT       P00
      000000ECH   SFRSYM    DATA     BYTE      RTAH
      000000D2H   SFRSYM    DATA     BYTE      PWMDUTL
      0000008EH   SFRSYM    DATA     BYTE      IT1CON
      00000090H.0 SFRSYM    DATA     BIT       P10
      00000080H.1 SFRSYM    DATA     BIT       P01
LX51 LINKER/LOCATER V4.66.97.0                                                        04/10/2021  13:15:07  PAGE 130


      0000009DH   SFRSYM    DATA     BYTE      S1RELH
      00000087H   SFRSYM    DATA     BYTE      PCON
      000000A0H.0 SFRSYM    DATA     BIT       P20
      00000090H.1 SFRSYM    DATA     BIT       P11
      00000080H.2 SFRSYM    DATA     BIT       P02
      000000E8H.0 SFRSYM    DATA     BIT       INT2EN
      000000F4H   SFRSYM    DATA     BYTE      RTCH
      000000A4H   SFRSYM    DATA     BYTE      S2RELH
      000000B0H.2 SFRSYM    DATA     BIT       LED_SW_MOD_GPIO
      000000B0H.0 SFRSYM    DATA     BIT       P30
      000000A0H.1 SFRSYM    DATA     BIT       P21
      00000090H.2 SFRSYM    DATA     BIT       P12
      00000080H.3 SFRSYM    DATA     BIT       P03
      000000E8H.1 SFRSYM    DATA     BIT       INT3EN
      000000C0H.0 SFRSYM    DATA     BIT       P40
      000000B0H.1 SFRSYM    DATA     BIT       P31
      000000A0H.2 SFRSYM    DATA     BIT       P22
      00000090H.3 SFRSYM    DATA     BIT       P13
      00000080H.4 SFRSYM    DATA     BIT       P04
      000000E8H.2 SFRSYM    DATA     BIT       INT4EN
      000000D8H.0 SFRSYM    DATA     BIT       P50
      000000C0H.1 SFRSYM    DATA     BIT       P41
      000000B0H.2 SFRSYM    DATA     BIT       P32
      000000A0H.3 SFRSYM    DATA     BIT       P23
      00000090H.4 SFRSYM    DATA     BIT       P14
      00000080H.5 SFRSYM    DATA     BIT       P05
      000000E8H.3 SFRSYM    DATA     BIT       INT5EN
      000000EBH   SFRSYM    DATA     BYTE      RTAM
      0000009CH   SFRSYM    DATA     BYTE      S1RELL
      00000089H   SFRSYM    DATA     BYTE      TMOD
      00000088H   SFRSYM    DATA     BYTE      TCON
      000000D8H.1 SFRSYM    DATA     BIT       P51
      000000C0H.2 SFRSYM    DATA     BIT       P42
      000000B0H.3 SFRSYM    DATA     BIT       P33
      000000A0H.4 SFRSYM    DATA     BIT       P24
      00000090H.5 SFRSYM    DATA     BIT       P15
      00000080H.6 SFRSYM    DATA     BIT       P06
      000000E8H.4 SFRSYM    DATA     BIT       INT6EN
      000000A3H   SFRSYM    DATA     BYTE      S2RELL
      000000D8H.2 SFRSYM    DATA     BIT       P52
      000000C0H.3 SFRSYM    DATA     BIT       P43
      000000B0H.4 SFRSYM    DATA     BIT       P34
      000000A0H.5 SFRSYM    DATA     BIT       P25
      00000090H.6 SFRSYM    DATA     BIT       P16
      00000080H.7 SFRSYM    DATA     BIT       P07
      000000E8H.5 SFRSYM    DATA     BIT       INT7EN
      000000C8H.2 SFRSYM    DATA     BIT       UCKS
      000000F8H   SFRSYM    DATA     BYTE      EXIP
      000000F3H   SFRSYM    DATA     BYTE      RTCM
      000000D8H.3 SFRSYM    DATA     BIT       P53
      000000C0H.4 SFRSYM    DATA     BIT       P44
      000000B0H.5 SFRSYM    DATA     BIT       P35
      000000A0H.6 SFRSYM    DATA     BIT       P26
      00000090H.7 SFRSYM    DATA     BIT       P17
      000000E8H.6 SFRSYM    DATA     BIT       INT8EN
      000000D8H.4 SFRSYM    DATA     BIT       P54
      000000C0H.5 SFRSYM    DATA     BIT       P45
      000000B0H.6 SFRSYM    DATA     BIT       P36
      000000A0H.7 SFRSYM    DATA     BIT       P27
      000000E8H.7 SFRSYM    DATA     BIT       INT9EN
      000000D8H.5 SFRSYM    DATA     BIT       P55
      000000C0H.6 SFRSYM    DATA     BIT       P46
      000000B0H.7 SFRSYM    DATA     BIT       P37
      000000D8H.6 SFRSYM    DATA     BIT       P56
      000000C0H.7 SFRSYM    DATA     BIT       P47
LX51 LINKER/LOCATER V4.66.97.0                                                        04/10/2021  13:15:07  PAGE 131


      000000EAH   SFRSYM    DATA     BYTE      RTAS
      000000AFH   SFRSYM    DATA     BYTE      HVTH
      00000095H   SFRSYM    DATA     BYTE      RCTAGH
      000000D8H.7 SFRSYM    DATA     BIT       P57
      000000F2H   SFRSYM    DATA     BYTE      RTCS
      00000088H.1 SFRSYM    DATA     BIT       IE0
      00000088H.3 SFRSYM    DATA     BIT       IE1
      00000094H   SFRSYM    DATA     BYTE      RCTAGL
      000000F0H   SFRSYM    DATA     BYTE      B
      000000E7H   SFRSYM    DATA     BYTE      MDUDAT
      000000C0H.0 SFRSYM    DATA     BIT       busy
      000000DEH   SFRSYM    DATA     BYTE      PWMCFG
      000000D4H   SFRSYM    DATA     BYTE      PWMAIF
      000000E0H   SFRSYM    DATA     BYTE      ACC
      000000D5H   SFRSYM    DATA     BYTE      PWMBIF
      0000009FH   SFRSYM    DATA     BYTE      RCMSHH
      000000A8H.4 SFRSYM    DATA     BIT       ES0
      000000EFH   SFRSYM    DATA     BYTE      LVDCON
      000000E6H   SFRSYM    DATA     BYTE      MDUCON
      000000D6H   SFRSYM    DATA     BYTE      PWMCIF
      000000A8H.1 SFRSYM    DATA     BIT       ET0
      000000A8H.6 SFRSYM    DATA     BIT       ES1
      000000D7H   SFRSYM    DATA     BYTE      PWMDIF
      000000A8H.3 SFRSYM    DATA     BIT       ET1
      00000088H.5 SFRSYM    DATA     BIT       TF0
      000000FDH   SFRSYM    DATA     BYTE      IDLSTH
      000000AEH   SFRSYM    DATA     BYTE      PLLCON
      000000A8H.5 SFRSYM    DATA     BIT       ET2
      00000098H.0 SFRSYM    DATA     BIT       RI0
      00000088H.7 SFRSYM    DATA     BIT       TF1
      0000009EH   SFRSYM    DATA     BYTE      RCMSHL
      00000097H   SFRSYM    DATA     BYTE      RCMSLH
      000000C8H.7 SFRSYM    DATA     BIT       TF2
      00000098H.2 SFRSYM    DATA     BIT       RB8
      0000008CH   SFRSYM    DATA     BYTE      TH0
      000000A8H.0 SFRSYM    DATA     BIT       EX0
      00000098H.1 SFRSYM    DATA     BIT       TI0
      00000088H.0 SFRSYM    DATA     BIT       IT0
      0000008DH   SFRSYM    DATA     BYTE      TH1
      000000A8H.2 SFRSYM    DATA     BIT       EX1
      00000098H.3 SFRSYM    DATA     BIT       TB8
      00000088H.2 SFRSYM    DATA     BIT       IT1
      000000FCH   SFRSYM    DATA     BYTE      IDLSTL
      000000CDH   SFRSYM    DATA     BYTE      TH2
      000000D0H.0 SFRSYM    DATA     BIT       P
      00000096H   SFRSYM    DATA     BYTE      RCMSLL
      00000098H.7 SFRSYM    DATA     BIT       SM0
      0000008AH   SFRSYM    DATA     BYTE      TL0
      00000098H.6 SFRSYM    DATA     BIT       SM1
      000000E5H   SFRSYM    DATA     BYTE      LXDIVH
      0000008BH   SFRSYM    DATA     BYTE      TL1
      000000D8H.4 SFRSYM    DATA     BIT       BL_CTL
      00000098H.5 SFRSYM    DATA     BIT       SM2
      000000CCH   SFRSYM    DATA     BYTE      TL2
      000000B8H.4 SFRSYM    DATA     BIT       PS0
      000000B8H.1 SFRSYM    DATA     BIT       PT0
      000000B8H.6 SFRSYM    DATA     BIT       PS1
      000000B8H.3 SFRSYM    DATA     BIT       PT1
      000000D0H.3 SFRSYM    DATA     BIT       RS0
      000000E4H   SFRSYM    DATA     BYTE      LXDIVL
      000000BDH   SFRSYM    DATA     BYTE      ADCDH
      000000B8H.5 SFRSYM    DATA     BIT       PT2
      00000088H.4 SFRSYM    DATA     BIT       TR0
      000000D0H.4 SFRSYM    DATA     BIT       RS1
      000000DDH   SFRSYM    DATA     BYTE      PWMCON
LX51 LINKER/LOCATER V4.66.97.0                                                        04/10/2021  13:15:07  PAGE 132


      00000088H.6 SFRSYM    DATA     BIT       TR1
      000000ADH   SFRSYM    DATA     BYTE      WDVTHH
      000000C8H.6 SFRSYM    DATA     BIT       TR2
      000000B8H.0 SFRSYM    DATA     BIT       PX0
      000000B8H.2 SFRSYM    DATA     BIT       PX1
      000000BCH   SFRSYM    DATA     BYTE      ADCDL
      000000ACH   SFRSYM    DATA     BYTE      WDVTHL
      000000DBH   SFRSYM    DATA     BYTE      PWMUPD
      000000C0H.5 SFRSYM    DATA     BIT       KEY_AD_GPIO
      00000099H   SFRSYM    DATA     BYTE      S0BUF
      0000009BH   SFRSYM    DATA     BYTE      S1BUF
      000000D8H.4 SFRSYM    DATA     BIT       BL_CTL_GPIO
      000000A2H   SFRSYM    DATA     BYTE      S2BUF
      00000098H   SFRSYM    DATA     BYTE      S0CON
      00000098H.4 SFRSYM    DATA     BIT       REN
      0000009AH   SFRSYM    DATA     BYTE      S1CON
      000000B9H   SFRSYM    DATA     BYTE      ADCON
      000000A1H   SFRSYM    DATA     BYTE      S2CON
      000000D0H.1 SFRSYM    DATA     BIT       DPS
      000000C9H   SFRSYM    DATA     BYTE      T2MOD
      000000C8H   SFRSYM    DATA     BYTE      T2CON
      000000FFH   SFRSYM    DATA     BYTE      STPSTH
      000000BFH   SFRSYM    DATA     BYTE      CKMIF
      000000FEH   SFRSYM    DATA     BYTE      STPSTL
      000000C2H   SFRSYM    DATA     BYTE      TKCFG
      00000093H   SFRSYM    DATA     BYTE      VCKDH
      000000B0H.3 SFRSYM    DATA     BIT       motor_a
      000000D0H.5 SFRSYM    DATA     BIT       F0
      000000E2H   SFRSYM    DATA     BYTE      LXCFG
      000000ABH   SFRSYM    DATA     BYTE      WDFLG
      00000092H   SFRSYM    DATA     BYTE      VCKDL
      000000B0H.7 SFRSYM    DATA     BIT       motor_b
      000000FBH   SFRSYM    DATA     BYTE      EPCON
      000000F6H   SFRSYM    DATA     BYTE      RTCDH
      000000C6H   SFRSYM    DATA     BYTE      ATKMH
      00000091H   SFRSYM    DATA     BYTE      RCCON
      000000F7H   SFRSYM    DATA     BYTE      INDEX
      000000EEH   SFRSYM    DATA     BYTE      RTCIF
      000000BEH   SFRSYM    DATA     BYTE      CKMON
      000000F5H   SFRSYM    DATA     BYTE      RTCDL
      000000D0H   SFRSYM    DATA     BYTE      PSW
      000000C5H   SFRSYM    DATA     BYTE      ATKML
      000000AAH   SFRSYM    DATA     BYTE      WDCON
      000000A6H   SFRSYM    DATA     BYTE      SPDAT
      020002A3H   SYMBOL    XDATA    WORD      before_bl_AD_value
      020002A6H   SYMBOL    XDATA    WORD      current_bl_AD_value
      01003C1DH   SYMBOL    CODE     ---       bl_adjust_AD_init
      020002A8H   SYMBOL    XDATA    ---       bl_param
      01003B83H   SYMBOL    CODE     ---       bl_param_init
      020002B2H   SYMBOL    XDATA    WORD      max_bl_AD_value
      01001CF5H   SYMBOL    CODE     ---       _get_bl_PWM_duty_value
      01001DABH   SYMBOL    CODE     ---       _set_bl_param

      01001B73H   BLOCK     CODE     ---       LVL=0
      01001B73H   BLOCK     CODE     NEAR LAB  LVL=1
      02000000H   SYMBOL    XDATA    BYTE      set_bl_duty_flg
      02000001H   SYMBOL    XDATA    WORD      bl_AD_differ_value
      ---         BLOCKEND  ---      ---       LVL=1
      01001B73H   LINE      CODE     ---       #50
      01001B73H   LINE      CODE     ---       #51
      01001B73H   LINE      CODE     ---       #52
      01001B78H   LINE      CODE     ---       #53
      01001B7CH   LINE      CODE     ---       #57
      01001B89H   LINE      CODE     ---       #60
      01001B9CH   LINE      CODE     ---       #62
LX51 LINKER/LOCATER V4.66.97.0                                                        04/10/2021  13:15:07  PAGE 133


      01001BABH   LINE      CODE     ---       #63
      01001BABH   LINE      CODE     ---       #64
      01001BAFH   LINE      CODE     ---       #65
      01001BB5H   LINE      CODE     ---       #66
      01001BB5H   LINE      CODE     ---       #67
      01001BBAH   LINE      CODE     ---       #68
      01001BC0H   LINE      CODE     ---       #69
      01001BC0H   LINE      CODE     ---       #71
      01001BC0H   LINE      CODE     ---       #73
      01001BCFH   LINE      CODE     ---       #74
      01001BCFH   LINE      CODE     ---       #75
      01001BD4H   LINE      CODE     ---       #76
      01001BEAH   LINE      CODE     ---       #77
      01001BEAH   LINE      CODE     ---       #79
      01001BEAH   LINE      CODE     ---       #81
      01001BEAH   LINE      CODE     ---       #82
      01001BF9H   LINE      CODE     ---       #83
      01001BF9H   LINE      CODE     ---       #84
      01001C02H   LINE      CODE     ---       #85
      01001C02H   LINE      CODE     ---       #86
      01001C0AH   LINE      CODE     ---       #87
      01001C13H   LINE      CODE     ---       #88
      01001C13H   LINE      CODE     ---       #89
      01001C13H   LINE      CODE     ---       #90
      01001C13H   LINE      CODE     ---       #92
      01001C1CH   LINE      CODE     ---       #93
      01001C27H   LINE      CODE     ---       #94
      01001C36H   LINE      CODE     ---       #96
      01001C36H   LINE      CODE     ---       #98
      ---         BLOCKEND  ---      ---       LVL=0

      01001CF5H   BLOCK     CODE     ---       LVL=0
      02000003H   SYMBOL    XDATA    ---       bl_PWM_duty
      01001D00H   BLOCK     CODE     NEAR LAB  LVL=1
      02000006H   SYMBOL    XDATA    FLOAT     temp_max_bl_AD_value
      0200000AH   SYMBOL    XDATA    FLOAT     temp_max_bl_duty
      ---         BLOCKEND  ---      ---       LVL=1
      01001CF5H   LINE      CODE     ---       #129
      01001D00H   LINE      CODE     ---       #130
      01001D00H   LINE      CODE     ---       #139
      01001D1CH   LINE      CODE     ---       #140
      01001D26H   LINE      CODE     ---       #141
      01001D66H   LINE      CODE     ---       #142
      01001D92H   LINE      CODE     ---       #144
      01001DA4H   LINE      CODE     ---       #145
      01001DA4H   LINE      CODE     ---       #146
      01001DAAH   LINE      CODE     ---       #147
      01001DAAH   LINE      CODE     ---       #148
      ---         BLOCKEND  ---      ---       LVL=0

      01003B83H   BLOCK     CODE     ---       LVL=0
      01003B83H   LINE      CODE     ---       #160
      01003B83H   LINE      CODE     ---       #161
      01003B83H   LINE      CODE     ---       #162
      ---         BLOCKEND  ---      ---       LVL=0

      01001DABH   BLOCK     CODE     ---       LVL=0
      02000003H   SYMBOL    XDATA    ---       bl_param
      00000002H   SYMBOL    DATA     WORD      _max_bl_AD_value
      01001DBAH   BLOCK     CODE     NEAR LAB  LVL=1
      02000006H   SYMBOL    XDATA    FLOAT     temp_max_bl_AD_value
      0200000AH   SYMBOL    XDATA    FLOAT     temp_max_bl_duty
      ---         BLOCKEND  ---      ---       LVL=1
      01001DABH   LINE      CODE     ---       #174
      01001DBAH   LINE      CODE     ---       #175
LX51 LINKER/LOCATER V4.66.97.0                                                        04/10/2021  13:15:07  PAGE 134


      01001DBAH   LINE      CODE     ---       #183
      01001DC2H   LINE      CODE     ---       #184
      01001DCCH   LINE      CODE     ---       #186
      01001DE8H   LINE      CODE     ---       #187
      01001DF2H   LINE      CODE     ---       #188
      01001E10H   LINE      CODE     ---       #189
      ---         BLOCKEND  ---      ---       LVL=0

      01002A18H   BLOCK     CODE     ---       LVL=0
      01002A18H   LINE      CODE     ---       #204
      01002A18H   LINE      CODE     ---       #205
      01002A18H   LINE      CODE     ---       #211
      01002A1EH   LINE      CODE     ---       #213
      01002A21H   LINE      CODE     ---       #214
      01002A24H   LINE      CODE     ---       #215
      01002A27H   LINE      CODE     ---       #216
      01002A2AH   LINE      CODE     ---       #217
      01002A2DH   LINE      CODE     ---       #218
      01002A2FH   LINE      CODE     ---       #220
      01002A32H   LINE      CODE     ---       #221
      01002A36H   LINE      CODE     ---       #222
      01002A39H   LINE      CODE     ---       #224
      01002A3CH   LINE      CODE     ---       #226
      01002A49H   LINE      CODE     ---       #227
      01002A59H   LINE      CODE     ---       #228
      01002A68H   LINE      CODE     ---       #229
      01002A68H   LINE      CODE     ---       #230
      01002A75H   LINE      CODE     ---       #231
      01002A75H   LINE      CODE     ---       #232
      01002A7DH   LINE      CODE     ---       #233
      01002A7DH   LINE      CODE     ---       #235
      01002A7DH   LINE      CODE     ---       #236
      01002A80H   LINE      CODE     ---       #237
      ---         BLOCKEND  ---      ---       LVL=0

      01003883H   BLOCK     CODE     ---       LVL=0
      00000004H   SYMBOL    DATA     WORD      bl_duty
      01003883H   LINE      CODE     ---       #254
      01003887H   LINE      CODE     ---       #255
      01003887H   LINE      CODE     ---       #256
      0100388DH   LINE      CODE     ---       #257
      0100388DH   LINE      CODE     ---       #258
      01003893H   LINE      CODE     ---       #259
      01003899H   LINE      CODE     ---       #260
      01003899H   LINE      CODE     ---       #261
      0100389CH   LINE      CODE     ---       #262
      0100389FH   LINE      CODE     ---       #263
      010038A3H   LINE      CODE     ---       #265
      010038A6H   LINE      CODE     ---       #266
      010038AAH   LINE      CODE     ---       #267
      010038ADH   LINE      CODE     ---       #268
      ---         BLOCKEND  ---      ---       LVL=0

      01003C1DH   BLOCK     CODE     ---       LVL=0
      01003C1DH   LINE      CODE     ---       #280
      01003C1DH   LINE      CODE     ---       #281
      01003C1DH   LINE      CODE     ---       #282
      01003C23H   LINE      CODE     ---       #283
      01003C26H   LINE      CODE     ---       #285
      01003C29H   LINE      CODE     ---       #286
      ---         BLOCKEND  ---      ---       LVL=0

      01003C02H   BLOCK     CODE     ---       LVL=0
      01003C02H   LINE      CODE     ---       #290
      01003C02H   LINE      CODE     ---       #291
LX51 LINKER/LOCATER V4.66.97.0                                                        04/10/2021  13:15:07  PAGE 135


      01003C02H   LINE      CODE     ---       #292
      01003C08H   LINE      CODE     ---       #293
      01003C0AH   LINE      CODE     ---       #295
      01003C0FH   LINE      CODE     ---       #296
      ---         BLOCKEND  ---      ---       LVL=0

      01001FB0H   BLOCK     CODE     ---       LVL=0
      02000003H   SYMBOL    XDATA    BYTE      adc_chx
      01001FB5H   BLOCK     CODE     NEAR LAB  LVL=1
      02000004H   SYMBOL    XDATA    BYTE      i
      02000005H   SYMBOL    XDATA    DWORD     sum
      ---         BLOCKEND  ---      ---       LVL=1
      01001FB0H   LINE      CODE     ---       #309
      01001FB5H   LINE      CODE     ---       #310
      01001FB5H   LINE      CODE     ---       #311
      01001FB8H   LINE      CODE     ---       #312
      01001FC0H   LINE      CODE     ---       #313
      01001FD2H   LINE      CODE     ---       #314
      01001FD2H   LINE      CODE     ---       #315
      01001FEFH   LINE      CODE     ---       #316
      01002023H   LINE      CODE     ---       #317
      0100202BH   LINE      CODE     ---       #318
      01002048H   LINE      CODE     ---       #319
      01002052H   LINE      CODE     ---       #320
      ---         BLOCKEND  ---      ---       LVL=0

      01003B1DH   BLOCK     CODE     ---       LVL=0
      00000006H   SYMBOL    DATA     WORD      value1
      00000004H   SYMBOL    DATA     WORD      value2
      01003B1DH   LINE      CODE     ---       #334
      01003B1DH   LINE      CODE     ---       #335
      01003B1DH   LINE      CODE     ---       #336
      01003B24H   LINE      CODE     ---       #337
      01003B24H   LINE      CODE     ---       #338
      01003B2BH   LINE      CODE     ---       #339
      01003B2BH   LINE      CODE     ---       #340
      01003B32H   LINE      CODE     ---       #341
      ---         BLOCKEND  ---      ---       LVL=0
      00000007H   SYMBOL    DATA     BYTE      value1
      00000005H   SYMBOL    DATA     BYTE      value2

      ---         MODULE    ---      ---       MOTOR
      02000304H   PUBLIC    XDATA    BYTE      alarm_shake_cycle
      02000303H   PUBLIC    XDATA    BYTE      motor_time_cnt
      00000021H.3 PUBLIC    BIT      BIT       motor_en
      02000300H   PUBLIC    XDATA    ---       shake_strength
      020002FFH   PUBLIC    XDATA    BYTE      motor_cycle_cnt
      020002FEH   PUBLIC    XDATA    BYTE      alarm_shake_seted_strength
      00000021H.2 PUBLIC    BIT      BIT       motor_state
      020002FDH   PUBLIC    XDATA    BYTE      motor_cycle
      00000021H.1 PUBLIC    BIT      BIT       motor_finish
      020002FCH   PUBLIC    XDATA    BYTE      motor_strength
      010026A0H   PUBLIC    CODE     ---       alarm_shake
      01003173H   PUBLIC    CODE     ---       motor_pro
      01003C5AH   PUBLIC    CODE     ---       motor_stop
      01003AB4H   PUBLIC    CODE     ---       _motor_start
      01003BE4H   PUBLIC    CODE     ---       motor_init
      01003A97H   PUBLIC    CODE     ---       motor_disable
      010039C7H   PUBLIC    CODE     ---       _motor_enable
      000000E3H   SFRSYM    DATA     BYTE      LXDAT
      000000C4H   SFRSYM    DATA     BYTE      TKCHS
      00000080H   SFRSYM    DATA     BYTE      P0
      000000C1H   SFRSYM    DATA     BYTE      TKCON
      00000090H   SFRSYM    DATA     BYTE      P1
      000000A0H   SFRSYM    DATA     BYTE      P2
LX51 LINKER/LOCATER V4.66.97.0                                                        04/10/2021  13:15:07  PAGE 136


      000000C0H.6 SFRSYM    DATA     BIT       MOTOR_SWITCH_ADC_GPIO
      000000C0H.0 SFRSYM    DATA     BIT       is_busy
      000000B0H   SFRSYM    DATA     BYTE      P3
      000000C0H.2 SFRSYM    DATA     BIT       DC_5V_GPIO
      000000D0H.6 SFRSYM    DATA     BIT       AC
      000000C0H   SFRSYM    DATA     BYTE      P4
      000000D8H   SFRSYM    DATA     BYTE      P5
      000000A5H   SFRSYM    DATA     BYTE      SPCON
      000000A8H.7 SFRSYM    DATA     BIT       EA
      000000E1H   SFRSYM    DATA     BYTE      LXCON
      000000A9H   SFRSYM    DATA     BYTE      P6
      000000C8H.0 SFRSYM    DATA     BIT       T2P0
      000000D9H   SFRSYM    DATA     BYTE      P7
      000000C8H.1 SFRSYM    DATA     BIT       T2P1
      000000F1H   SFRSYM    DATA     BYTE      RTCON
      000000C8H.4 SFRSYM    DATA     BIT       T2R0
      000000DAH   SFRSYM    DATA     BYTE      PWMEN
      000000CFH   SFRSYM    DATA     BYTE      TKMSH
      00000086H   SFRSYM    DATA     BYTE      PWCON
      000000C8H.5 SFRSYM    DATA     BIT       T2R1
      000000C0H.2 SFRSYM    DATA     BIT       dc_5v_in
      000000CEH   SFRSYM    DATA     BYTE      TKMSL
      000000A7H   SFRSYM    DATA     BYTE      SPSTA
      00000083H   SFRSYM    DATA     BYTE      DP0H
      000000A8H   SFRSYM    DATA     BYTE      IE
      00000085H   SFRSYM    DATA     BYTE      DP1H
      000000E9H   SFRSYM    DATA     BYTE      RTCSS
      00000082H   SFRSYM    DATA     BYTE      DP0L
      000000C0H.1 SFRSYM    DATA     BIT       BAT_ADC_GPIO
      000000CBH   SFRSYM    DATA     BYTE      T2CH
      000000B3H   SFRSYM    DATA     BYTE      I2CADM
      00000084H   SFRSYM    DATA     BYTE      DP1L
      000000C8H.3 SFRSYM    DATA     BIT       T2IE
      000000C3H   SFRSYM    DATA     BYTE      TKMTS
      000000C0H.7 SFRSYM    DATA     BIT       MODE_SWITCH_ADC_GPIO
      000000CAH   SFRSYM    DATA     BYTE      T2CL
      000000B2H   SFRSYM    DATA     BYTE      I2CADR
      000000B4H   SFRSYM    DATA     BYTE      I2CCCR
      000000B8H   SFRSYM    DATA     BYTE      IP
      000000B7H   SFRSYM    DATA     BYTE      I2CFLG
      000000B5H   SFRSYM    DATA     BYTE      I2CDAT
      000000EDH   SFRSYM    DATA     BYTE      RTMSS
      000000D0H.7 SFRSYM    DATA     BIT       CY
      000000BBH   SFRSYM    DATA     BYTE      ADCFGH
      000000DCH   SFRSYM    DATA     BYTE      PWMCMAX
      000000B1H   SFRSYM    DATA     BYTE      I2CCON
      000000D1H   SFRSYM    DATA     BYTE      PWMDIVH
      000000BAH   SFRSYM    DATA     BYTE      ADCFGL
      00000081H   SFRSYM    DATA     BYTE      SP
      000000F9H   SFRSYM    DATA     BYTE      EPIE
      000000D0H.2 SFRSYM    DATA     BIT       OV
      000000FAH   SFRSYM    DATA     BYTE      EPIF
      000000DFH   SFRSYM    DATA     BYTE      PWMDIVL
      000000B6H   SFRSYM    DATA     BYTE      I2CSTA
      000000E8H   SFRSYM    DATA     BYTE      EXIE
      000000D3H   SFRSYM    DATA     BYTE      PWMDUTH
      000000C7H   SFRSYM    DATA     BYTE      TKIF
      0000008FH   SFRSYM    DATA     BYTE      IT0CON
      00000080H.0 SFRSYM    DATA     BIT       P00
      000000ECH   SFRSYM    DATA     BYTE      RTAH
      000000D2H   SFRSYM    DATA     BYTE      PWMDUTL
      0000008EH   SFRSYM    DATA     BYTE      IT1CON
      00000090H.0 SFRSYM    DATA     BIT       P10
      00000080H.1 SFRSYM    DATA     BIT       P01
      0000009DH   SFRSYM    DATA     BYTE      S1RELH
LX51 LINKER/LOCATER V4.66.97.0                                                        04/10/2021  13:15:07  PAGE 137


      00000087H   SFRSYM    DATA     BYTE      PCON
      000000A0H.0 SFRSYM    DATA     BIT       P20
      00000090H.1 SFRSYM    DATA     BIT       P11
      00000080H.2 SFRSYM    DATA     BIT       P02
      000000E8H.0 SFRSYM    DATA     BIT       INT2EN
      000000F4H   SFRSYM    DATA     BYTE      RTCH
      000000A4H   SFRSYM    DATA     BYTE      S2RELH
      000000B0H.2 SFRSYM    DATA     BIT       LED_SW_MOD_GPIO
      000000B0H.0 SFRSYM    DATA     BIT       P30
      000000A0H.1 SFRSYM    DATA     BIT       P21
      00000090H.2 SFRSYM    DATA     BIT       P12
      00000080H.3 SFRSYM    DATA     BIT       P03
      000000E8H.1 SFRSYM    DATA     BIT       INT3EN
      000000C0H.0 SFRSYM    DATA     BIT       P40
      000000B0H.1 SFRSYM    DATA     BIT       P31
      000000A0H.2 SFRSYM    DATA     BIT       P22
      00000090H.3 SFRSYM    DATA     BIT       P13
      00000080H.4 SFRSYM    DATA     BIT       P04
      000000E8H.2 SFRSYM    DATA     BIT       INT4EN
      000000D8H.0 SFRSYM    DATA     BIT       P50
      000000C0H.1 SFRSYM    DATA     BIT       P41
      000000B0H.2 SFRSYM    DATA     BIT       P32
      000000A0H.3 SFRSYM    DATA     BIT       P23
      00000090H.4 SFRSYM    DATA     BIT       P14
      00000080H.5 SFRSYM    DATA     BIT       P05
      000000E8H.3 SFRSYM    DATA     BIT       INT5EN
      000000EBH   SFRSYM    DATA     BYTE      RTAM
      0000009CH   SFRSYM    DATA     BYTE      S1RELL
      00000089H   SFRSYM    DATA     BYTE      TMOD
      00000088H   SFRSYM    DATA     BYTE      TCON
      000000D8H.1 SFRSYM    DATA     BIT       P51
      000000C0H.2 SFRSYM    DATA     BIT       P42
      000000B0H.3 SFRSYM    DATA     BIT       P33
      000000A0H.4 SFRSYM    DATA     BIT       P24
      00000090H.5 SFRSYM    DATA     BIT       P15
      00000080H.6 SFRSYM    DATA     BIT       P06
      000000E8H.4 SFRSYM    DATA     BIT       INT6EN
      000000A3H   SFRSYM    DATA     BYTE      S2RELL
      000000D8H.2 SFRSYM    DATA     BIT       P52
      000000C0H.3 SFRSYM    DATA     BIT       P43
      000000B0H.4 SFRSYM    DATA     BIT       P34
      000000A0H.5 SFRSYM    DATA     BIT       P25
      00000090H.6 SFRSYM    DATA     BIT       P16
      00000080H.7 SFRSYM    DATA     BIT       P07
      000000E8H.5 SFRSYM    DATA     BIT       INT7EN
      000000C8H.2 SFRSYM    DATA     BIT       UCKS
      000000F8H   SFRSYM    DATA     BYTE      EXIP
      000000F3H   SFRSYM    DATA     BYTE      RTCM
      000000D8H.3 SFRSYM    DATA     BIT       P53
      000000C0H.4 SFRSYM    DATA     BIT       P44
      000000B0H.5 SFRSYM    DATA     BIT       P35
      000000A0H.6 SFRSYM    DATA     BIT       P26
      00000090H.7 SFRSYM    DATA     BIT       P17
      000000E8H.6 SFRSYM    DATA     BIT       INT8EN
      000000D8H.4 SFRSYM    DATA     BIT       P54
      000000C0H.5 SFRSYM    DATA     BIT       P45
      000000B0H.6 SFRSYM    DATA     BIT       P36
      000000A0H.7 SFRSYM    DATA     BIT       P27
      000000E8H.7 SFRSYM    DATA     BIT       INT9EN
      000000D8H.5 SFRSYM    DATA     BIT       P55
      000000C0H.6 SFRSYM    DATA     BIT       P46
      000000B0H.7 SFRSYM    DATA     BIT       P37
      000000D8H.6 SFRSYM    DATA     BIT       P56
      000000C0H.7 SFRSYM    DATA     BIT       P47
      000000EAH   SFRSYM    DATA     BYTE      RTAS
LX51 LINKER/LOCATER V4.66.97.0                                                        04/10/2021  13:15:07  PAGE 138


      000000AFH   SFRSYM    DATA     BYTE      HVTH
      00000095H   SFRSYM    DATA     BYTE      RCTAGH
      000000D8H.7 SFRSYM    DATA     BIT       P57
      000000F2H   SFRSYM    DATA     BYTE      RTCS
      00000088H.1 SFRSYM    DATA     BIT       IE0
      00000088H.3 SFRSYM    DATA     BIT       IE1
      00000094H   SFRSYM    DATA     BYTE      RCTAGL
      000000F0H   SFRSYM    DATA     BYTE      B
      000000E7H   SFRSYM    DATA     BYTE      MDUDAT
      000000C0H.0 SFRSYM    DATA     BIT       busy
      000000DEH   SFRSYM    DATA     BYTE      PWMCFG
      000000D4H   SFRSYM    DATA     BYTE      PWMAIF
      000000E0H   SFRSYM    DATA     BYTE      ACC
      000000D5H   SFRSYM    DATA     BYTE      PWMBIF
      0000009FH   SFRSYM    DATA     BYTE      RCMSHH
      000000A8H.4 SFRSYM    DATA     BIT       ES0
      000000EFH   SFRSYM    DATA     BYTE      LVDCON
      000000E6H   SFRSYM    DATA     BYTE      MDUCON
      000000D6H   SFRSYM    DATA     BYTE      PWMCIF
      000000A8H.1 SFRSYM    DATA     BIT       ET0
      000000A8H.6 SFRSYM    DATA     BIT       ES1
      000000D7H   SFRSYM    DATA     BYTE      PWMDIF
      000000A8H.3 SFRSYM    DATA     BIT       ET1
      00000088H.5 SFRSYM    DATA     BIT       TF0
      000000FDH   SFRSYM    DATA     BYTE      IDLSTH
      000000AEH   SFRSYM    DATA     BYTE      PLLCON
      000000A8H.5 SFRSYM    DATA     BIT       ET2
      00000098H.0 SFRSYM    DATA     BIT       RI0
      00000088H.7 SFRSYM    DATA     BIT       TF1
      0000009EH   SFRSYM    DATA     BYTE      RCMSHL
      00000097H   SFRSYM    DATA     BYTE      RCMSLH
      000000C8H.7 SFRSYM    DATA     BIT       TF2
      00000098H.2 SFRSYM    DATA     BIT       RB8
      0000008CH   SFRSYM    DATA     BYTE      TH0
      000000A8H.0 SFRSYM    DATA     BIT       EX0
      00000098H.1 SFRSYM    DATA     BIT       TI0
      00000088H.0 SFRSYM    DATA     BIT       IT0
      0000008DH   SFRSYM    DATA     BYTE      TH1
      000000A8H.2 SFRSYM    DATA     BIT       EX1
      00000098H.3 SFRSYM    DATA     BIT       TB8
      00000088H.2 SFRSYM    DATA     BIT       IT1
      000000FCH   SFRSYM    DATA     BYTE      IDLSTL
      000000CDH   SFRSYM    DATA     BYTE      TH2
      000000D0H.0 SFRSYM    DATA     BIT       P
      00000096H   SFRSYM    DATA     BYTE      RCMSLL
      00000098H.7 SFRSYM    DATA     BIT       SM0
      0000008AH   SFRSYM    DATA     BYTE      TL0
      00000098H.6 SFRSYM    DATA     BIT       SM1
      000000E5H   SFRSYM    DATA     BYTE      LXDIVH
      0000008BH   SFRSYM    DATA     BYTE      TL1
      000000D8H.4 SFRSYM    DATA     BIT       BL_CTL
      00000098H.5 SFRSYM    DATA     BIT       SM2
      000000CCH   SFRSYM    DATA     BYTE      TL2
      000000B8H.4 SFRSYM    DATA     BIT       PS0
      000000B8H.1 SFRSYM    DATA     BIT       PT0
      000000B8H.6 SFRSYM    DATA     BIT       PS1
      000000B8H.3 SFRSYM    DATA     BIT       PT1
      000000D0H.3 SFRSYM    DATA     BIT       RS0
      000000E4H   SFRSYM    DATA     BYTE      LXDIVL
      000000BDH   SFRSYM    DATA     BYTE      ADCDH
      000000B8H.5 SFRSYM    DATA     BIT       PT2
      00000088H.4 SFRSYM    DATA     BIT       TR0
      000000D0H.4 SFRSYM    DATA     BIT       RS1
      000000DDH   SFRSYM    DATA     BYTE      PWMCON
      00000088H.6 SFRSYM    DATA     BIT       TR1
LX51 LINKER/LOCATER V4.66.97.0                                                        04/10/2021  13:15:07  PAGE 139


      000000ADH   SFRSYM    DATA     BYTE      WDVTHH
      000000C8H.6 SFRSYM    DATA     BIT       TR2
      000000B8H.0 SFRSYM    DATA     BIT       PX0
      000000B8H.2 SFRSYM    DATA     BIT       PX1
      000000BCH   SFRSYM    DATA     BYTE      ADCDL
      000000ACH   SFRSYM    DATA     BYTE      WDVTHL
      000000DBH   SFRSYM    DATA     BYTE      PWMUPD
      000000C0H.5 SFRSYM    DATA     BIT       KEY_AD_GPIO
      00000099H   SFRSYM    DATA     BYTE      S0BUF
      0000009BH   SFRSYM    DATA     BYTE      S1BUF
      000000D8H.4 SFRSYM    DATA     BIT       BL_CTL_GPIO
      000000A2H   SFRSYM    DATA     BYTE      S2BUF
      00000098H   SFRSYM    DATA     BYTE      S0CON
      00000098H.4 SFRSYM    DATA     BIT       REN
      0000009AH   SFRSYM    DATA     BYTE      S1CON
      000000B9H   SFRSYM    DATA     BYTE      ADCON
      000000A1H   SFRSYM    DATA     BYTE      S2CON
      000000D0H.1 SFRSYM    DATA     BIT       DPS
      000000C9H   SFRSYM    DATA     BYTE      T2MOD
      000000C8H   SFRSYM    DATA     BYTE      T2CON
      000000FFH   SFRSYM    DATA     BYTE      STPSTH
      000000BFH   SFRSYM    DATA     BYTE      CKMIF
      000000FEH   SFRSYM    DATA     BYTE      STPSTL
      000000C2H   SFRSYM    DATA     BYTE      TKCFG
      00000093H   SFRSYM    DATA     BYTE      VCKDH
      000000B0H.3 SFRSYM    DATA     BIT       motor_a
      000000D0H.5 SFRSYM    DATA     BIT       F0
      000000E2H   SFRSYM    DATA     BYTE      LXCFG
      000000ABH   SFRSYM    DATA     BYTE      WDFLG
      00000092H   SFRSYM    DATA     BYTE      VCKDL
      000000B0H.7 SFRSYM    DATA     BIT       motor_b
      000000FBH   SFRSYM    DATA     BYTE      EPCON
      000000F6H   SFRSYM    DATA     BYTE      RTCDH
      000000C6H   SFRSYM    DATA     BYTE      ATKMH
      00000091H   SFRSYM    DATA     BYTE      RCCON
      000000F7H   SFRSYM    DATA     BYTE      INDEX
      000000EEH   SFRSYM    DATA     BYTE      RTCIF
      000000BEH   SFRSYM    DATA     BYTE      CKMON
      000000F5H   SFRSYM    DATA     BYTE      RTCDL
      000000D0H   SFRSYM    DATA     BYTE      PSW
      000000C5H   SFRSYM    DATA     BYTE      ATKML
      000000AAH   SFRSYM    DATA     BYTE      WDCON
      000000A6H   SFRSYM    DATA     BYTE      SPDAT

      010039C7H   BLOCK     CODE     ---       LVL=0
      00000007H   SYMBOL    DATA     BYTE      _strength
      010039C7H   LINE      CODE     ---       #23
      010039C7H   LINE      CODE     ---       #24
      010039C7H   LINE      CODE     ---       #25
      010039CDH   LINE      CODE     ---       #26
      010039D3H   LINE      CODE     ---       #27
      010039D5H   LINE      CODE     ---       #29
      010039D8H   LINE      CODE     ---       #44
      010039DBH   LINE      CODE     ---       #45
      010039DEH   LINE      CODE     ---       #47
      010039E0H   LINE      CODE     ---       #48
      010039E2H   LINE      CODE     ---       #49
      010039E5H   LINE      CODE     ---       #50
      010039E9H   LINE      CODE     ---       #51
      010039ECH   LINE      CODE     ---       #52
      ---         BLOCKEND  ---      ---       LVL=0

      01003A97H   BLOCK     CODE     ---       LVL=0
      01003A97H   LINE      CODE     ---       #58
      01003A97H   LINE      CODE     ---       #59
LX51 LINKER/LOCATER V4.66.97.0                                                        04/10/2021  13:15:07  PAGE 140


      01003A97H   LINE      CODE     ---       #60
      01003A9AH   LINE      CODE     ---       #61
      01003AA0H   LINE      CODE     ---       #62
      01003AA4H   LINE      CODE     ---       #63
      01003AA6H   LINE      CODE     ---       #64
      01003AA8H   LINE      CODE     ---       #65
      01003AAFH   LINE      CODE     ---       #66
      01003AB1H   LINE      CODE     ---       #67
      01003AB3H   LINE      CODE     ---       #69
      ---         BLOCKEND  ---      ---       LVL=0

      01003BE4H   BLOCK     CODE     ---       LVL=0
      01003BE4H   LINE      CODE     ---       #72
      01003BE4H   LINE      CODE     ---       #73
      01003BE4H   LINE      CODE     ---       #74
      01003BEAH   LINE      CODE     ---       #75
      01003BEEH   LINE      CODE     ---       #77
      01003BF0H   LINE      CODE     ---       #78
      01003BF2H   LINE      CODE     ---       #79
      ---         BLOCKEND  ---      ---       LVL=0

      01003AB4H   BLOCK     CODE     ---       LVL=0
      00000007H   SYMBOL    DATA     BYTE      _strength
      00000005H   SYMBOL    DATA     BYTE      _cycle
      01003AB4H   LINE      CODE     ---       #86
      01003AB4H   LINE      CODE     ---       #87
      01003AB4H   LINE      CODE     ---       #88
      01003AB6H   LINE      CODE     ---       #89
      01003AB8H   LINE      CODE     ---       #90
      01003ABDH   LINE      CODE     ---       #93
      01003AC2H   LINE      CODE     ---       #94
      01003AC7H   LINE      CODE     ---       #95
      01003ACCH   LINE      CODE     ---       #97
      01003ACEH   LINE      CODE     ---       #98
      ---         BLOCKEND  ---      ---       LVL=0

      01003C5AH   BLOCK     CODE     ---       LVL=0
      01003C5AH   LINE      CODE     ---       #105
      01003C5AH   LINE      CODE     ---       #106
      01003C5AH   LINE      CODE     ---       #107
      01003C5CH   LINE      CODE     ---       #108
      ---         BLOCKEND  ---      ---       LVL=0

      01003173H   BLOCK     CODE     ---       LVL=0
      01003173H   LINE      CODE     ---       #115
      01003173H   LINE      CODE     ---       #116
      01003173H   LINE      CODE     ---       #117
      01003176H   LINE      CODE     ---       #120
      01003179H   LINE      CODE     ---       #121
      01003179H   LINE      CODE     ---       #123
      01003179H   LINE      CODE     ---       #124
      01003188H   LINE      CODE     ---       #125
      01003188H   LINE      CODE     ---       #126
      0100318AH   LINE      CODE     ---       #127
      0100318CH   LINE      CODE     ---       #128
      0100318FH   LINE      CODE     ---       #129
      0100318FH   LINE      CODE     ---       #130
      0100318FH   LINE      CODE     ---       #131
      0100318FH   LINE      CODE     ---       #133
      0100318FH   LINE      CODE     ---       #134
      0100319EH   LINE      CODE     ---       #135
      0100319EH   LINE      CODE     ---       #136
      010031ACH   LINE      CODE     ---       #137
      010031ACH   LINE      CODE     ---       #138
      010031B5H   LINE      CODE     ---       #139
LX51 LINKER/LOCATER V4.66.97.0                                                        04/10/2021  13:15:07  PAGE 141


      010031B5H   LINE      CODE     ---       #140
      010031B7H   LINE      CODE     ---       #141
      010031BAH   LINE      CODE     ---       #143
      010031BAH   LINE      CODE     ---       #144
      010031BAH   LINE      CODE     ---       #145
      010031BCH   LINE      CODE     ---       #146
      010031C1H   LINE      CODE     ---       #147
      010031C9H   LINE      CODE     ---       #148
      010031C9H   LINE      CODE     ---       #149
      010031C9H   LINE      CODE     ---       #150
      ---         BLOCKEND  ---      ---       LVL=0

      010026A0H   BLOCK     CODE     ---       LVL=0
      010026A0H   BLOCK     CODE     NEAR LAB  LVL=1
      020002FAH   SYMBOL    XDATA    BYTE      cycle_delay_time
      020002FBH   SYMBOL    XDATA    BYTE      alarm_cycle_times
      ---         BLOCKEND  ---      ---       LVL=1
      010026A0H   LINE      CODE     ---       #156
      010026A0H   LINE      CODE     ---       #157
      010026A0H   LINE      CODE     ---       #161
      010026A6H   LINE      CODE     ---       #162
      010026A6H   LINE      CODE     ---       #163
      010026AAH   LINE      CODE     ---       #164
      010026ACH   LINE      CODE     ---       #165
      010026C3H   LINE      CODE     ---       #166
      010026C9H   LINE      CODE     ---       #167
      010026CAH   LINE      CODE     ---       #169
      010026CAH   LINE      CODE     ---       #170
      010026CDH   LINE      CODE     ---       #171
      010026CDH   LINE      CODE     ---       #172
      010026DCH   LINE      CODE     ---       #173
      010026DCH   LINE      CODE     ---       #174
      010026DEH   LINE      CODE     ---       #175
      010026E0H   LINE      CODE     ---       #177
      010026ECH   LINE      CODE     ---       #178
      010026ECH   LINE      CODE     ---       #179
      010026EEH   LINE      CODE     ---       #180
      010026F4H   LINE      CODE     ---       #181
      010026F4H   LINE      CODE     ---       #183
      01002706H   LINE      CODE     ---       #184
      01002706H   LINE      CODE     ---       #185
      01002713H   LINE      CODE     ---       #186
      01002715H   LINE      CODE     ---       #188
      01002715H   LINE      CODE     ---       #189
      01002725H   LINE      CODE     ---       #190
      01002725H   LINE      CODE     ---       #191
      01002725H   LINE      CODE     ---       #192
      01002725H   LINE      CODE     ---       #193
      01002725H   LINE      CODE     ---       #194
      ---         BLOCKEND  ---      ---       LVL=0

      ---         MODULE    ---      ---       SWITCH
      020002DCH   PUBLIC    XDATA    ---       m_switch
      020002DBH   PUBLIC    XDATA    BYTE      g_current_motor_level
      020002D9H   PUBLIC    XDATA    ---       switch_ADC_ch_table
      020002D8H   PUBLIC    XDATA    BYTE      g_before_motor_level
      020002D7H   PUBLIC    XDATA    BYTE      g_current_alarm_mode_level
      020002D6H   PUBLIC    XDATA    BYTE      g_led_alarm_enable
      020002D5H   PUBLIC    XDATA    BYTE      g_before_alarm_mode_level
      020002D4H   PUBLIC    XDATA    BYTE      g_volume_and_mode_init_flg
      020002C8H   PUBLIC    XDATA    ---       switch_level_buf
      01001E60H   PUBLIC    CODE     ---       get_volume_and_mode
      010023DCH   PUBLIC    CODE     ---       _get_current_switch_level
      01003BF3H   PUBLIC    CODE     ---       close_switch_ADC_pin
      01003BC5H   PUBLIC    CODE     ---       led_mod_detect
LX51 LINKER/LOCATER V4.66.97.0                                                        04/10/2021  13:15:07  PAGE 142


      01003C3DH   PUBLIC    CODE     ---       switch_led_mod_init
      01003B94H   PUBLIC    CODE     ---       switch_ADC_init
      000000E3H   SFRSYM    DATA     BYTE      LXDAT
      000000C4H   SFRSYM    DATA     BYTE      TKCHS
      00000080H   SFRSYM    DATA     BYTE      P0
      000000C1H   SFRSYM    DATA     BYTE      TKCON
      00000090H   SFRSYM    DATA     BYTE      P1
      000000A0H   SFRSYM    DATA     BYTE      P2
      000000C0H.6 SFRSYM    DATA     BIT       MOTOR_SWITCH_ADC_GPIO
      000000C0H.0 SFRSYM    DATA     BIT       is_busy
      000000B0H   SFRSYM    DATA     BYTE      P3
      000000C0H.2 SFRSYM    DATA     BIT       DC_5V_GPIO
      000000D0H.6 SFRSYM    DATA     BIT       AC
      000000C0H   SFRSYM    DATA     BYTE      P4
      000000D8H   SFRSYM    DATA     BYTE      P5
      000000A5H   SFRSYM    DATA     BYTE      SPCON
      000000A8H.7 SFRSYM    DATA     BIT       EA
      000000E1H   SFRSYM    DATA     BYTE      LXCON
      000000A9H   SFRSYM    DATA     BYTE      P6
      000000C8H.0 SFRSYM    DATA     BIT       T2P0
      000000D9H   SFRSYM    DATA     BYTE      P7
      000000C8H.1 SFRSYM    DATA     BIT       T2P1
      000000F1H   SFRSYM    DATA     BYTE      RTCON
      000000C8H.4 SFRSYM    DATA     BIT       T2R0
      000000DAH   SFRSYM    DATA     BYTE      PWMEN
      000000CFH   SFRSYM    DATA     BYTE      TKMSH
      00000086H   SFRSYM    DATA     BYTE      PWCON
      000000C8H.5 SFRSYM    DATA     BIT       T2R1
      000000C0H.2 SFRSYM    DATA     BIT       dc_5v_in
      000000CEH   SFRSYM    DATA     BYTE      TKMSL
      000000A7H   SFRSYM    DATA     BYTE      SPSTA
      00000083H   SFRSYM    DATA     BYTE      DP0H
      000000A8H   SFRSYM    DATA     BYTE      IE
      00000085H   SFRSYM    DATA     BYTE      DP1H
      000000E9H   SFRSYM    DATA     BYTE      RTCSS
      00000082H   SFRSYM    DATA     BYTE      DP0L
      000000C0H.1 SFRSYM    DATA     BIT       BAT_ADC_GPIO
      000000CBH   SFRSYM    DATA     BYTE      T2CH
      000000B3H   SFRSYM    DATA     BYTE      I2CADM
      00000084H   SFRSYM    DATA     BYTE      DP1L
      000000C8H.3 SFRSYM    DATA     BIT       T2IE
      000000C3H   SFRSYM    DATA     BYTE      TKMTS
      000000C0H.7 SFRSYM    DATA     BIT       MODE_SWITCH_ADC_GPIO
      000000CAH   SFRSYM    DATA     BYTE      T2CL
      000000B2H   SFRSYM    DATA     BYTE      I2CADR
      000000B4H   SFRSYM    DATA     BYTE      I2CCCR
      000000B8H   SFRSYM    DATA     BYTE      IP
      000000B7H   SFRSYM    DATA     BYTE      I2CFLG
      000000B5H   SFRSYM    DATA     BYTE      I2CDAT
      000000EDH   SFRSYM    DATA     BYTE      RTMSS
      000000D0H.7 SFRSYM    DATA     BIT       CY
      000000BBH   SFRSYM    DATA     BYTE      ADCFGH
      000000DCH   SFRSYM    DATA     BYTE      PWMCMAX
      000000B1H   SFRSYM    DATA     BYTE      I2CCON
      000000D1H   SFRSYM    DATA     BYTE      PWMDIVH
      000000BAH   SFRSYM    DATA     BYTE      ADCFGL
      00000081H   SFRSYM    DATA     BYTE      SP
      000000F9H   SFRSYM    DATA     BYTE      EPIE
      000000D0H.2 SFRSYM    DATA     BIT       OV
      000000FAH   SFRSYM    DATA     BYTE      EPIF
      000000DFH   SFRSYM    DATA     BYTE      PWMDIVL
      000000B6H   SFRSYM    DATA     BYTE      I2CSTA
      000000E8H   SFRSYM    DATA     BYTE      EXIE
      000000D3H   SFRSYM    DATA     BYTE      PWMDUTH
      000000C7H   SFRSYM    DATA     BYTE      TKIF
LX51 LINKER/LOCATER V4.66.97.0                                                        04/10/2021  13:15:07  PAGE 143


      0000008FH   SFRSYM    DATA     BYTE      IT0CON
      00000080H.0 SFRSYM    DATA     BIT       P00
      000000ECH   SFRSYM    DATA     BYTE      RTAH
      000000D2H   SFRSYM    DATA     BYTE      PWMDUTL
      0000008EH   SFRSYM    DATA     BYTE      IT1CON
      00000090H.0 SFRSYM    DATA     BIT       P10
      00000080H.1 SFRSYM    DATA     BIT       P01
      0000009DH   SFRSYM    DATA     BYTE      S1RELH
      00000087H   SFRSYM    DATA     BYTE      PCON
      000000A0H.0 SFRSYM    DATA     BIT       P20
      00000090H.1 SFRSYM    DATA     BIT       P11
      00000080H.2 SFRSYM    DATA     BIT       P02
      000000E8H.0 SFRSYM    DATA     BIT       INT2EN
      000000F4H   SFRSYM    DATA     BYTE      RTCH
      000000A4H   SFRSYM    DATA     BYTE      S2RELH
      000000B0H.2 SFRSYM    DATA     BIT       LED_SW_MOD_GPIO
      000000B0H.0 SFRSYM    DATA     BIT       P30
      000000A0H.1 SFRSYM    DATA     BIT       P21
      00000090H.2 SFRSYM    DATA     BIT       P12
      00000080H.3 SFRSYM    DATA     BIT       P03
      000000E8H.1 SFRSYM    DATA     BIT       INT3EN
      000000C0H.0 SFRSYM    DATA     BIT       P40
      000000B0H.1 SFRSYM    DATA     BIT       P31
      000000A0H.2 SFRSYM    DATA     BIT       P22
      00000090H.3 SFRSYM    DATA     BIT       P13
      00000080H.4 SFRSYM    DATA     BIT       P04
      000000E8H.2 SFRSYM    DATA     BIT       INT4EN
      000000D8H.0 SFRSYM    DATA     BIT       P50
      000000C0H.1 SFRSYM    DATA     BIT       P41
      000000B0H.2 SFRSYM    DATA     BIT       P32
      000000A0H.3 SFRSYM    DATA     BIT       P23
      00000090H.4 SFRSYM    DATA     BIT       P14
      00000080H.5 SFRSYM    DATA     BIT       P05
      000000E8H.3 SFRSYM    DATA     BIT       INT5EN
      000000EBH   SFRSYM    DATA     BYTE      RTAM
      0000009CH   SFRSYM    DATA     BYTE      S1RELL
      00000089H   SFRSYM    DATA     BYTE      TMOD
      00000088H   SFRSYM    DATA     BYTE      TCON
      000000D8H.1 SFRSYM    DATA     BIT       P51
      000000C0H.2 SFRSYM    DATA     BIT       P42
      000000B0H.3 SFRSYM    DATA     BIT       P33
      000000A0H.4 SFRSYM    DATA     BIT       P24
      00000090H.5 SFRSYM    DATA     BIT       P15
      00000080H.6 SFRSYM    DATA     BIT       P06
      000000E8H.4 SFRSYM    DATA     BIT       INT6EN
      000000A3H   SFRSYM    DATA     BYTE      S2RELL
      000000D8H.2 SFRSYM    DATA     BIT       P52
      000000C0H.3 SFRSYM    DATA     BIT       P43
      000000B0H.4 SFRSYM    DATA     BIT       P34
      000000A0H.5 SFRSYM    DATA     BIT       P25
      00000090H.6 SFRSYM    DATA     BIT       P16
      00000080H.7 SFRSYM    DATA     BIT       P07
      000000E8H.5 SFRSYM    DATA     BIT       INT7EN
      000000C8H.2 SFRSYM    DATA     BIT       UCKS
      000000F8H   SFRSYM    DATA     BYTE      EXIP
      000000F3H   SFRSYM    DATA     BYTE      RTCM
      000000D8H.3 SFRSYM    DATA     BIT       P53
      000000C0H.4 SFRSYM    DATA     BIT       P44
      000000B0H.5 SFRSYM    DATA     BIT       P35
      000000A0H.6 SFRSYM    DATA     BIT       P26
      00000090H.7 SFRSYM    DATA     BIT       P17
      000000E8H.6 SFRSYM    DATA     BIT       INT8EN
      000000D8H.4 SFRSYM    DATA     BIT       P54
      000000C0H.5 SFRSYM    DATA     BIT       P45
      000000B0H.6 SFRSYM    DATA     BIT       P36
LX51 LINKER/LOCATER V4.66.97.0                                                        04/10/2021  13:15:07  PAGE 144


      000000A0H.7 SFRSYM    DATA     BIT       P27
      000000E8H.7 SFRSYM    DATA     BIT       INT9EN
      000000D8H.5 SFRSYM    DATA     BIT       P55
      000000C0H.6 SFRSYM    DATA     BIT       P46
      000000B0H.7 SFRSYM    DATA     BIT       P37
      000000D8H.6 SFRSYM    DATA     BIT       P56
      000000C0H.7 SFRSYM    DATA     BIT       P47
      000000EAH   SFRSYM    DATA     BYTE      RTAS
      000000AFH   SFRSYM    DATA     BYTE      HVTH
      00000095H   SFRSYM    DATA     BYTE      RCTAGH
      000000D8H.7 SFRSYM    DATA     BIT       P57
      000000F2H   SFRSYM    DATA     BYTE      RTCS
      00000088H.1 SFRSYM    DATA     BIT       IE0
      00000088H.3 SFRSYM    DATA     BIT       IE1
      00000094H   SFRSYM    DATA     BYTE      RCTAGL
      000000F0H   SFRSYM    DATA     BYTE      B
      000000E7H   SFRSYM    DATA     BYTE      MDUDAT
      000000C0H.0 SFRSYM    DATA     BIT       busy
      000000DEH   SFRSYM    DATA     BYTE      PWMCFG
      000000D4H   SFRSYM    DATA     BYTE      PWMAIF
      000000E0H   SFRSYM    DATA     BYTE      ACC
      000000D5H   SFRSYM    DATA     BYTE      PWMBIF
      0000009FH   SFRSYM    DATA     BYTE      RCMSHH
      000000A8H.4 SFRSYM    DATA     BIT       ES0
      000000EFH   SFRSYM    DATA     BYTE      LVDCON
      000000E6H   SFRSYM    DATA     BYTE      MDUCON
      000000D6H   SFRSYM    DATA     BYTE      PWMCIF
      000000A8H.1 SFRSYM    DATA     BIT       ET0
      000000A8H.6 SFRSYM    DATA     BIT       ES1
      000000D7H   SFRSYM    DATA     BYTE      PWMDIF
      000000A8H.3 SFRSYM    DATA     BIT       ET1
      00000088H.5 SFRSYM    DATA     BIT       TF0
      000000FDH   SFRSYM    DATA     BYTE      IDLSTH
      000000AEH   SFRSYM    DATA     BYTE      PLLCON
      000000A8H.5 SFRSYM    DATA     BIT       ET2
      00000098H.0 SFRSYM    DATA     BIT       RI0
      00000088H.7 SFRSYM    DATA     BIT       TF1
      0000009EH   SFRSYM    DATA     BYTE      RCMSHL
      00000097H   SFRSYM    DATA     BYTE      RCMSLH
      000000C8H.7 SFRSYM    DATA     BIT       TF2
      00000098H.2 SFRSYM    DATA     BIT       RB8
      0000008CH   SFRSYM    DATA     BYTE      TH0
      000000A8H.0 SFRSYM    DATA     BIT       EX0
      00000098H.1 SFRSYM    DATA     BIT       TI0
      00000088H.0 SFRSYM    DATA     BIT       IT0
      0000008DH   SFRSYM    DATA     BYTE      TH1
      000000A8H.2 SFRSYM    DATA     BIT       EX1
      00000098H.3 SFRSYM    DATA     BIT       TB8
      00000088H.2 SFRSYM    DATA     BIT       IT1
      000000FCH   SFRSYM    DATA     BYTE      IDLSTL
      000000CDH   SFRSYM    DATA     BYTE      TH2
      000000D0H.0 SFRSYM    DATA     BIT       P
      00000096H   SFRSYM    DATA     BYTE      RCMSLL
      00000098H.7 SFRSYM    DATA     BIT       SM0
      0000008AH   SFRSYM    DATA     BYTE      TL0
      00000098H.6 SFRSYM    DATA     BIT       SM1
      000000E5H   SFRSYM    DATA     BYTE      LXDIVH
      0000008BH   SFRSYM    DATA     BYTE      TL1
      000000D8H.4 SFRSYM    DATA     BIT       BL_CTL
      00000098H.5 SFRSYM    DATA     BIT       SM2
      000000CCH   SFRSYM    DATA     BYTE      TL2
      000000B8H.4 SFRSYM    DATA     BIT       PS0
      000000B8H.1 SFRSYM    DATA     BIT       PT0
      000000B8H.6 SFRSYM    DATA     BIT       PS1
      000000B8H.3 SFRSYM    DATA     BIT       PT1
LX51 LINKER/LOCATER V4.66.97.0                                                        04/10/2021  13:15:07  PAGE 145


      000000D0H.3 SFRSYM    DATA     BIT       RS0
      000000E4H   SFRSYM    DATA     BYTE      LXDIVL
      000000BDH   SFRSYM    DATA     BYTE      ADCDH
      000000B8H.5 SFRSYM    DATA     BIT       PT2
      00000088H.4 SFRSYM    DATA     BIT       TR0
      000000D0H.4 SFRSYM    DATA     BIT       RS1
      000000DDH   SFRSYM    DATA     BYTE      PWMCON
      00000088H.6 SFRSYM    DATA     BIT       TR1
      000000ADH   SFRSYM    DATA     BYTE      WDVTHH
      000000C8H.6 SFRSYM    DATA     BIT       TR2
      000000B8H.0 SFRSYM    DATA     BIT       PX0
      000000B8H.2 SFRSYM    DATA     BIT       PX1
      000000BCH   SFRSYM    DATA     BYTE      ADCDL
      000000ACH   SFRSYM    DATA     BYTE      WDVTHL
      000000DBH   SFRSYM    DATA     BYTE      PWMUPD
      000000C0H.5 SFRSYM    DATA     BIT       KEY_AD_GPIO
      00000099H   SFRSYM    DATA     BYTE      S0BUF
      0000009BH   SFRSYM    DATA     BYTE      S1BUF
      000000D8H.4 SFRSYM    DATA     BIT       BL_CTL_GPIO
      000000A2H   SFRSYM    DATA     BYTE      S2BUF
      00000098H   SFRSYM    DATA     BYTE      S0CON
      00000098H.4 SFRSYM    DATA     BIT       REN
      0000009AH   SFRSYM    DATA     BYTE      S1CON
      000000B9H   SFRSYM    DATA     BYTE      ADCON
      000000A1H   SFRSYM    DATA     BYTE      S2CON
      000000D0H.1 SFRSYM    DATA     BIT       DPS
      000000C9H   SFRSYM    DATA     BYTE      T2MOD
      000000C8H   SFRSYM    DATA     BYTE      T2CON
      000000FFH   SFRSYM    DATA     BYTE      STPSTH
      000000BFH   SFRSYM    DATA     BYTE      CKMIF
      000000FEH   SFRSYM    DATA     BYTE      STPSTL
      000000C2H   SFRSYM    DATA     BYTE      TKCFG
      00000093H   SFRSYM    DATA     BYTE      VCKDH
      000000B0H.3 SFRSYM    DATA     BIT       motor_a
      000000D0H.5 SFRSYM    DATA     BIT       F0
      000000E2H   SFRSYM    DATA     BYTE      LXCFG
      000000ABH   SFRSYM    DATA     BYTE      WDFLG
      00000092H   SFRSYM    DATA     BYTE      VCKDL
      000000B0H.7 SFRSYM    DATA     BIT       motor_b
      000000FBH   SFRSYM    DATA     BYTE      EPCON
      000000F6H   SFRSYM    DATA     BYTE      RTCDH
      000000C6H   SFRSYM    DATA     BYTE      ATKMH
      00000091H   SFRSYM    DATA     BYTE      RCCON
      000000F7H   SFRSYM    DATA     BYTE      INDEX
      000000EEH   SFRSYM    DATA     BYTE      RTCIF
      000000BEH   SFRSYM    DATA     BYTE      CKMON
      000000F5H   SFRSYM    DATA     BYTE      RTCDL
      000000D0H   SFRSYM    DATA     BYTE      PSW
      000000C5H   SFRSYM    DATA     BYTE      ATKML
      000000AAH   SFRSYM    DATA     BYTE      WDCON
      000000A6H   SFRSYM    DATA     BYTE      SPDAT

      01003B94H   BLOCK     CODE     ---       LVL=0
      01003B94H   LINE      CODE     ---       #38
      01003B94H   LINE      CODE     ---       #39
      01003B94H   LINE      CODE     ---       #40
      01003B9AH   LINE      CODE     ---       #41
      01003B9EH   LINE      CODE     ---       #42
      01003BA1H   LINE      CODE     ---       #43
      01003BA4H   LINE      CODE     ---       #44
      ---         BLOCKEND  ---      ---       LVL=0

      01003C3DH   BLOCK     CODE     ---       LVL=0
      01003C3DH   LINE      CODE     ---       #46
      01003C3DH   LINE      CODE     ---       #47
LX51 LINKER/LOCATER V4.66.97.0                                                        04/10/2021  13:15:07  PAGE 146


      01003C3DH   LINE      CODE     ---       #48
      01003C43H   LINE      CODE     ---       #49
      ---         BLOCKEND  ---      ---       LVL=0

      01003BC5H   BLOCK     CODE     ---       LVL=0
      01003BC5H   LINE      CODE     ---       #52
      01003BC5H   LINE      CODE     ---       #53
      01003BC5H   LINE      CODE     ---       #54
      01003BC8H   LINE      CODE     ---       #55
      01003BC8H   LINE      CODE     ---       #56
      01003BCEH   LINE      CODE     ---       #57
      01003BCFH   LINE      CODE     ---       #59
      01003BCFH   LINE      CODE     ---       #60
      01003BD4H   LINE      CODE     ---       #61
      01003BD4H   LINE      CODE     ---       #62
      ---         BLOCKEND  ---      ---       LVL=0

      01003BF3H   BLOCK     CODE     ---       LVL=0
      01003BF3H   LINE      CODE     ---       #65
      01003BF3H   LINE      CODE     ---       #66
      01003BF3H   LINE      CODE     ---       #67
      01003BF9H   LINE      CODE     ---       #68
      01003BFDH   LINE      CODE     ---       #70
      01003BFFH   LINE      CODE     ---       #71
      01003C01H   LINE      CODE     ---       #73
      ---         BLOCKEND  ---      ---       LVL=0

      010023DCH   BLOCK     CODE     ---       LVL=0
      02000000H   SYMBOL    XDATA    BYTE      _adc_chx_index
      010023E1H   BLOCK     CODE     NEAR LAB  LVL=1
      02000001H   SYMBOL    XDATA    BYTE      i
      00000006H   SYMBOL    DATA     WORD      adc_value
      ---         BLOCKEND  ---      ---       LVL=1
      010023DCH   LINE      CODE     ---       #77
      010023E1H   LINE      CODE     ---       #78
      010023E1H   LINE      CODE     ---       #79
      010023E4H   LINE      CODE     ---       #80
      010023E5H   LINE      CODE     ---       #81
      010023F7H   LINE      CODE     ---       #82
      01002409H   LINE      CODE     ---       #83
      01002409H   LINE      CODE     ---       #84
      01002437H   LINE      CODE     ---       #85
      01002437H   LINE      CODE     ---       #86
      0100243CH   LINE      CODE     ---       #87
      0100243CH   LINE      CODE     ---       #88
      01002442H   LINE      CODE     ---       #89
      01002444H   LINE      CODE     ---       #90
      0100244AH   LINE      CODE     ---       #91
      0100244AH   LINE      CODE     ---       #92
      0100244EH   LINE      CODE     ---       #93
      01002450H   LINE      CODE     ---       #94
      01002456H   LINE      CODE     ---       #95
      01002456H   LINE      CODE     ---       #96
      0100245BH   LINE      CODE     ---       #97
      0100245BH   LINE      CODE     ---       #98
      01002461H   LINE      CODE     ---       #99
      01002461H   LINE      CODE     ---       #100
      01002469H   LINE      CODE     ---       #101
      0100246BH   LINE      CODE     ---       #102
      ---         BLOCKEND  ---      ---       LVL=0

      01001E60H   BLOCK     CODE     ---       LVL=0
      01001E60H   LINE      CODE     ---       #109
      01001E60H   LINE      CODE     ---       #110
      01001E60H   LINE      CODE     ---       #111
LX51 LINKER/LOCATER V4.66.97.0                                                        04/10/2021  13:15:07  PAGE 147


      01001E69H   LINE      CODE     ---       #112
      01001E69H   LINE      CODE     ---       #113
      01001E72H   LINE      CODE     ---       #114
      01001E7CH   LINE      CODE     ---       #116
      01001E99H   LINE      CODE     ---       #119
      01001E99H   LINE      CODE     ---       #120
      01001EA2H   LINE      CODE     ---       #121
      01001EA2H   LINE      CODE     ---       #122
      01001EA2H   LINE      CODE     ---       #123
      01001EA8H   LINE      CODE     ---       #124
      01001EAAH   LINE      CODE     ---       #126
      01001EAAH   LINE      CODE     ---       #127
      01001EAFH   LINE      CODE     ---       #128
      01001EB1H   LINE      CODE     ---       #130
      01001EB1H   LINE      CODE     ---       #131
      01001EB7H   LINE      CODE     ---       #132
      01001EB7H   LINE      CODE     ---       #134
      01001EB7H   LINE      CODE     ---       #135
      01001EB7H   LINE      CODE     ---       #137
      01001EC6H   LINE      CODE     ---       #138
      01001EC6H   LINE      CODE     ---       #139
      01001EC6H   LINE      CODE     ---       #140
      01001ECCH   LINE      CODE     ---       #141
      01001ECDH   LINE      CODE     ---       #142
      01001ECFH   LINE      CODE     ---       #144
      01001ECFH   LINE      CODE     ---       #145
      01001ED5H   LINE      CODE     ---       #146
      01001ED9H   LINE      CODE     ---       #147
      01001EDBH   LINE      CODE     ---       #149
      01001EDBH   LINE      CODE     ---       #150
      01001EE0H   LINE      CODE     ---       #151
      01001EE5H   LINE      CODE     ---       #152
      01001EE5H   LINE      CODE     ---       #153
      01001EE5H   LINE      CODE     ---       #154
      01001EE5H   LINE      CODE     ---       #157
      01001EEBH   LINE      CODE     ---       #158
      01001EEBH   LINE      CODE     ---       #159
      01001EEDH   LINE      CODE     ---       #160
      01001EEDH   LINE      CODE     ---       #161
      01001EF5H   LINE      CODE     ---       #162
      01001EF5H   LINE      CODE     ---       #163
      01001EFAH   LINE      CODE     ---       #164
      01001EFAH   LINE      CODE     ---       #165
      01001F01H   LINE      CODE     ---       #166
      01001F01H   LINE      CODE     ---       #167
      01001F09H   LINE      CODE     ---       #168
      01001F09H   LINE      CODE     ---       #169
      01001F09H   LINE      CODE     ---       #170
      01001F09H   LINE      CODE     ---       #171
      ---         BLOCKEND  ---      ---       LVL=0

      ---         MODULE    ---      ---       ?C?FPADD
      01000075H   PUBLIC    CODE     ---       ?C?FPADD
      01000071H   PUBLIC    CODE     ---       ?C?FPSUB

      ---         MODULE    ---      ---       ?C?FPMUL
      01000166H   PUBLIC    CODE     ---       ?C?FPMUL

      ---         MODULE    ---      ---       ?C?FPDIV
      0100026FH   PUBLIC    CODE     ---       ?C?FPDIV

      ---         MODULE    ---      ---       ?C?FCAST
      01000316H   PUBLIC    CODE     ---       ?C?FCASTC
      01000311H   PUBLIC    CODE     ---       ?C?FCASTI
      0100030CH   PUBLIC    CODE     ---       ?C?FCASTL
LX51 LINKER/LOCATER V4.66.97.0                                                        04/10/2021  13:15:07  PAGE 148



      ---         MODULE    ---      ---       ?C?CASTF
      0100034AH   PUBLIC    CODE     ---       ?C?CASTF

      ---         MODULE    ---      ---       VSPRINTF
      0201012CH   PUBLIC    XDATA    ---       ?_VSPRINTF?BYTE
      01003269H   PUBLIC    CODE     ---       _VSPRINTF

      ---         MODULE    ---      ---       ?C?FPGETOPN
      01000381H   PUBLIC    CODE     ---       ?C?FPGETOPN2
      010003B6H   PUBLIC    CODE     ---       ?C?FPNANRESULT
      010003C0H   PUBLIC    CODE     ---       ?C?FPOVERFLOW
      01000398H   PUBLIC    CODE     ---       ?C?FPRESULT
      010003ACH   PUBLIC    CODE     ---       ?C?FPRESULT2
      010003BDH   PUBLIC    CODE     ---       ?C?FPUNDERFLOW

      ---         MODULE    ---      ---       PRINTF
      02000135H   PUBLIC    XDATA    ---       ?_PRINTF?BYTE
      02000135H   PUBLIC    XDATA    ---       ?_SPRINTF?BYTE
      01000A32H   PUBLIC    CODE     ---       _PRINTF
      01000A2CH   PUBLIC    CODE     ---       _SPRINTF

      ---         MODULE    ---      ---       ?C?FPROUND
      010003CBH   PUBLIC    CODE     ---       ?C?FPROUND

      ---         MODULE    ---      ---       ?C?FPCONVERT
      01000408H   PUBLIC    CODE     ---       ?C?FPCONVERT

      ---         MODULE    ---      ---       ?C?FTNPWR
      0100053DH   PUBLIC    CODE     ---       ?C?FTNPWR

      ---         MODULE    ---      ---       ?C_INIT
      010025CFH   PUBLIC    CODE     ---       ?C_START

      ---         MODULE    ---      ---       ?C?CLDPTR
      0100057DH   PUBLIC    CODE     ---       ?C?CLDPTR

      ---         MODULE    ---      ---       ?C?CLDOPTR
      01000596H   PUBLIC    CODE     ---       ?C?CLDOPTR

      ---         MODULE    ---      ---       ?C?CILDPTR
      010005C3H   PUBLIC    CODE     ---       ?C?CILDPTR

      ---         MODULE    ---      ---       ?C?CILDOPTR
      010005E5H   PUBLIC    CODE     ---       ?C?CILDOPTR

      ---         MODULE    ---      ---       ?C?CSTPTR
      01000618H   PUBLIC    CODE     ---       ?C?CSTPTR

      ---         MODULE    ---      ---       ?C?CSTOPTR
      0100062AH   PUBLIC    CODE     ---       ?C?CSTOPTR

      ---         MODULE    ---      ---       ?C?IMUL
      0100064CH   PUBLIC    CODE     ---       ?C?IMUL

      ---         MODULE    ---      ---       ?C?UIDIV
      0100065EH   PUBLIC    CODE     ---       ?C?UIDIV

      ---         MODULE    ---      ---       ?C?IILDX
      010006B3H   PUBLIC    CODE     ---       ?C?IILDX

      ---         MODULE    ---      ---       ?C?ILDIX
      010006C9H   PUBLIC    CODE     ---       ?C?ILDIX

      ---         MODULE    ---      ---       ?C?ILDPTR
LX51 LINKER/LOCATER V4.66.97.0                                                        04/10/2021  13:15:07  PAGE 149


      010006DFH   PUBLIC    CODE     ---       ?C?ILDPTR

      ---         MODULE    ---      ---       ?C?ILDOPTR
      0100070AH   PUBLIC    CODE     ---       ?C?ILDOPTR

      ---         MODULE    ---      ---       ?C?IILDOPTR
      01000742H   PUBLIC    CODE     ---       ?C?IILDOPTR

      ---         MODULE    ---      ---       ?C?ISTPTR
      0100078FH   PUBLIC    CODE     ---       ?C?ISTPTR

      ---         MODULE    ---      ---       ?C?ISTOPTR
      010007AEH   PUBLIC    CODE     ---       ?C?ISTOPTR

      ---         MODULE    ---      ---       ?C?LMUL
      010007DBH   PUBLIC    CODE     ---       ?C?LMUL

      ---         MODULE    ---      ---       ?C?ULDIV
      01000866H   PUBLIC    CODE     ---       ?C?ULDIV

      ---         MODULE    ---      ---       ?C?LNEG
      010008F8H   PUBLIC    CODE     ---       ?C?LNEG

      ---         MODULE    ---      ---       ?C?LSTPTR
      01000906H   PUBLIC    CODE     ---       ?C?LSTPTR

      ---         MODULE    ---      ---       ?C?LSTXDATA
      01000920H   PUBLIC    CODE     ---       ?C?LSTXDATA

      ---         MODULE    ---      ---       ?C?LSTKXDATA
      0100092CH   PUBLIC    CODE     ---       ?C?LSTKXDATA

      ---         MODULE    ---      ---       ?C?OFFXADD
      0100095DH   PUBLIC    CODE     ---       ?C?OFFXADD

      ---         MODULE    ---      ---       ?C?PLDIXDATA
      01000969H   PUBLIC    CODE     ---       ?C?PLDIXDATA

      ---         MODULE    ---      ---       ?C?PSTXDATA
      01000980H   PUBLIC    CODE     ---       ?C?PSTXDATA

      ---         MODULE    ---      ---       ?C?CCASE
      01000989H   PUBLIC    CODE     ---       ?C?CCASE

      ---         MODULE    ---      ---       PUTCHAR
      0100397AH   PUBLIC    CODE     ---       _PUTCHAR

      ---         MODULE    ---      ---       ?C?LSTIDATA
      010009AFH   PUBLIC    CODE     ---       ?C?LSTIDATA

      ---         MODULE    ---      ---       ?C?LSTPDATA
      010009BBH   PUBLIC    CODE     ---       ?C?LSTPDATA

Program Size: data=15.5 xdata=1012 const=64 code=15459
LX51 RUN COMPLETE.  0 WARNING(S),  0 ERROR(S)
